c__builtin__
set
p1
((lp2
S'gm--gm###has not released###prices'
p3
atRp4
.c__builtin__
set
p1
((lp2
S'waters--their boat###be towing to###malaysian waters'
p3
aS'newmont mining--newmont mining corp and buenaventura###put###their $ 4.8 billion conga project'
p4
aS'waters--they###were again stopped in###malaysian waters'
p5
aS'ford motor--ford motor co###launched###the latest version of its rival mustang sports car'
p6
aS'southern--southern copper controlled by grupo mexico###to build###a desalinization plant to ease concerns over water supplies in its revised environmental plan ,'
p7
aS'newmont mining--newmont mining corp and buenaventura###put their $ 4.8 billion conga project in###2011'
p8
aS'southern--southern copper###might sue###peru'
p9
aS'freeport-mcmoran--freeport-mcmoran inc###controls sumitomo metal mining co ltd 21 percent###53.56 percent'
p10
aS'southern--southern copper###announced a 60-day formal "pause " in its stalled $ 1.4 billion tia maria project in###a bid to quell deadly protests against it'
p11
aS'phillips 66--baker hughes and phillips 66###performed well in###the quarter'
p12
aS'freeport-mcmoran--freeport-mcmoran inc###controls buenaventura 19.58 percent###sumitomo metal mining co ltd 21 percent'
p13
aS'southern--southern copper controlled by grupo mexico###has promised to build###a desalinization plant to ease concerns over water supplies in its revised environmental plan ,'
p14
aS'southern--southern copper###failed to report###the alleged crime'
p15
aS'southern--southern copper###be controlled by###grupo mexico'
p16
aS'southern--southern copper###to report###the alleged crime'
p17
aS'freeport-mcmoran--freeport-mcmoran inc###controls sumitomo metal mining co ltd 21 percent###buenaventura 19.58 percent'
p18
aS'waters--thousands of migrants###are adrift in###southeast asian waters'
p19
aS'southern--southern copper###announced###a 60-day formal "pause'
p20
aS'general motors--may 16 general motors co###unveiled###the sixth generation of its chevrolet camaro'
p21
aS'newmont mining--newmont mining corp and buenaventura###put their $ 4.8 billion conga project on###hold'
p22
aS'newmont mining--newmont mining corp and buenaventura###put their $ 4.8 billion conga project amid###violent protests'
p23
aS'chipotle mexican grill--chipotle mexican grill inc###has leaped###87 percent'
p24
aS'southern--the decision###follows of###unrest in the southern region of arequipa and a presidential address'
p25
aS'freeport-mcmoran--freeport-mcmoran inc###controls buenaventura 19.58 percent###53.56 percent'
p26
aS'phillips 66--baker hughes and phillips 66###performed well despite###the oil rout'
p27
aS"southern--a speedboat###be taken from###southern thailand 's coast"
p28
aS'freeport-mcmoran--freeport-mcmoran inc###controls 53.56 percent###buenaventura 19.58 percent'
p29
aS'freeport-mcmoran--freeport-mcmoran inc###controls 53.56 percent###sumitomo metal mining co ltd 21 percent'
p30
atRp31
.