(lp1
c__builtin__
set
p2
((lp3
S'home depot--home depot profit###beats###housing recovery'
p4
aS'home depot--home depot profit###beats housing recovery amid###u .s'
p5
atRp6
ag2
((lp7
S'apple--apple inc###was handed a mixed ruling by a u .s in###the latest twist'
p8
aS'apple--apple inc###was handed appeals court in###the latest twist'
p9
aS'apple--apple inc###was handed a mixed ruling by a u .s###appeals court'
p10
atRp11
ag2
((lp12
S'apple--billionaire investor carl###icahn said on###monday apple inc'
p13
atRp14
ag2
((lp15
S'verizon communications--19 cablevision systems corp###may sued###verizon communications inc'
p16
aS'cablevision--19 cablevision systems corp###may sued###verizon communications inc'
p17
aS'verizon communications--verizon communications inc###may be sued on###tuesday'
p18
aS"cablevision--19 cablevision systems corp###may sued verizon communications inc seeking###a judge 's finding"
p19
aS'cablevision--19 cablevision systems corp###may sued verizon communications inc on###tuesday'
p20
atRp21
ag2
((lp22
S'raytheon--raytheon co###appealed###a decision'
p23
aS'raytheon--raytheon co###appealed a decision by###a federal claims court'
p24
atRp25
ag2
((lp26
S'southwest airlines--southwest airlines###expects###passenger unit revenue drop'
p27
atRp28
ag2
((lp29
S"bank of america--james sadler###has left###bnp paribas where he was a director within the firm 's debt capital markets team in the middle east to join rival bank of america merrill lynch"
p30
atRp31
ag2
((lp32
S'merck--19 merck kgaa###may said###european union antitrust regulators'
p33
aS'merck--merck kgaa###says to overcome###eu concerns'
p34
atRp35
ag2
((lp36
S'cablevision--cablevision systems corp###sued###verizon communications inc'
p37
aS'verizon communications--cablevision systems corp###sued###verizon communications inc'
p38
aS"verizon communications--(updates ) by nate raymond new york may 19 ( reuters ) - cablevision systems corp sued verizon communications inc on tuesday seeking a judge 's finding that its television commercial claiming verizon 's fios service does not solely use fiber optic cable###is###truthful"
p39
aS'verizon communications--verizon communications inc###be sued on###tuesday'
p40
aS"cablevision--(updates ) by nate raymond new york may 19 ( reuters ) - cablevision systems corp sued verizon communications inc on tuesday seeking a judge 's finding that its television commercial claiming verizon 's fios service does not solely use fiber optic cable###is###truthful"
p41
aS'cablevision--cablevision systems corp###sued verizon communications inc on###tuesday'
p42
atRp43
ag2
((lp44
S'facebook--sarah palin###said on###facebook'
p45
atRp46
ag2
((lp47
S'abbott--abbott comment###(adds said on###tuesday'
p48
atRp49
ag2
((lp50
S'boeing--defense appropriations panel###also funds###boeing jets'
p51
atRp52
ag2
((lp53
S'wal-mart stores--wal-mart stores inc###joined retailers reporting disappointing quarterly results###the list of u .s'
p54
aS'wal-mart stores--wal-mart stores inc###joined the list of u .s###retailers reporting disappointing quarterly results'
p55
atRp56
ag2
((lp57
S'apple--apple inc###would introduce###a television set and a car'
p58
aS'apple--apple###will still introduce###tv'
p59
atRp60
ag2
((lp61
S'lockheed martin--18 ( reuters ) - six u .s . f-35b fighter jets built by lockheed martin corp landed on the uss###wasp###amphibious warship'
p62
aS'lockheed martin--f-35b fighter jets built by lockheed martin corp###landed on###the uss'
p63
aS'lockheed martin--18 ( reuters ) - six u .s . f-35b fighter jets built by lockheed martin corp landed on the uss###wasp amphibious warship on###monday'
p64
aS'lockheed martin--18 ( reuters ) - six u .s . f-35b fighter jets built by lockheed martin corp landed on the uss###wasp amphibious warship for###two weeks of operational testing'
p65
aS'lockheed martin--f-35b fighter jets###be built by###lockheed martin corp'
p66
atRp67
ag2
((lp68
S'google--google ventures###leads###$ 15 million deal'
p69
aS'google--google inc and two venture capitalist firms###are investing $ 15 million in###a u .s'
p70
aS'google--google ventures###leads $ 15 million deal in###farmers business network'
p71
atRp72
ag2
((lp73
S'autodesk--autodesk inc which makes computer-aided design software###reported###a 32.5 percent fall hurt by an increase in operating expenses and cost of revenue'
p74
aS'autodesk--computer-aided design software###be makes by###autodesk inc'
p75
atRp76
ag2
((lp77
S"hp--china 's unigroup###says###wins bid to buy 51 percent stake in hp unit"
p78
atRp79
ag2
((lp80
S'cme--cme group inc###said on###monday'
p81
atRp82
ag2
((lp83
S'raytheon--raytheon co###appealed###a decision'
p84
aS'raytheon--raytheon co###appealed a decision by###a federal claims court'
p85
atRp86
ag2
((lp87
S'apple--apple inc###had scrapped###plans introducing an ultra-high-definition television set more than a year ago , wall street journal'
p88
aS'apple--apple###shelved###plans to introduce tv set more than a year ago'
p89
atRp90
ag2
((lp91
S'bank of america--bancorp and bank of america corp###won###a dismissal of claims'
p92
atRp93
ag2
((lp94
S'cablevision--cablevision systems corp###sued###verizon communications inc'
p95
aS'verizon communications--verizon communications inc###be sued on###tuesday'
p96
aS"cablevision--cablevision systems corp###sued verizon communications inc seeking###a judge 's finding"
p97
aS'cablevision--cablevision systems corp###sued verizon communications inc on###tuesday'
p98
aS'verizon communications--cablevision systems corp###sued###verizon communications inc'
p99
atRp100
ag2
((lp101
S'apple--apple inc###was handed appeals court in the latest twist###a mixed ruling'
p102
aS'apple--apple inc###was handed a mixed ruling by a u .s in###a blockbuster intellectual property battle'
p103
aS'apple--apple inc###was handed appeals court in the latest twist in###a blockbuster intellectual property battle'
p104
aS'apple--apple inc###was handed a mixed ruling by a u .s###appeals court'
p105
atRp106
ag2
((lp107
S"kinder morgan--the state of georgia 's top transportation official###has denied###kinder morgan inc 's request"
p108
atRp109
ag2
((lp110
S'general motors--19 the local divisions of general motors struggling to obtain hard currency to import parts###may are considering charging venezuelans dollars for###some cars'
p111
aS'general motors--19 the local divisions of general motors struggling to obtain hard currency to import parts###may are considering charging###venezuelans dollars'
p112
atRp113
ag2
((lp114
S'apple--apple###will still introduce###tv'
p115
atRp116
ag2
((lp117
S'southwest airlines--southwest airlines###expects###passenger unit revenue drop'
p118
atRp119
ag2
((lp120
S'apple--apple inc###would introduce###a television and a car'
p121
aS'apple--apple###will still introduce###tv cnbc'
p122
atRp123
a.