(lp1
c__builtin__
set
p2
((lp3
S'starbucks--starbucks###said of###it'
p4
atRp5
ag2
((lp6
S'goldman sachs--goldman sachs###to settle###forex suit'
p7
aS'goldman sachs--goldman sachs###expected to settle###forex suit'
p8
atRp9
ag2
((lp10
S'goldman sachs--goldman sachs###expected to settle forex suit for###almost $ 130 mln wsj'
p11
aS'goldman sachs--goldman sachs###to settle###forex suit'
p12
aS'goldman sachs--goldman sachs###expected to settle###forex suit'
p13
aS'goldman sachs--goldman sachs###to settle forex suit for###almost $ 130 mln wsj'
p14
atRp15
ag2
((lp16
S'apple--he###had visited with###tesla motors inc , apple inc and google inc'
p17
aS'apple--fiat chrysler ceo###says met###apple ceos'
p18
aS'google--he###had visited with###tesla motors inc , apple inc and google inc'
p19
atRp20
ag2
((lp21
S'tesoro--a 52-day labor strike###led at###tesoro'
p22
aS"tesoro--a 52-day labor strike that led to a shutdown at tesoro###be corp 's refinery in###martinez"
p23
atRp24
ag2
((lp25
S'tesoro--a 52-day labor strike###led at###tesoro'
p26
aS"tesoro--a 52-day labor strike that led to a shutdown at tesoro###be corp 's refinery in###martinez"
p27
atRp28
ag2
((lp29
S'apple--fiat chrysler ceo###says met###apple ceos'
p30
atRp31
a.