c__builtin__
set
p1
((lp2
S'gm--gm###be forever discharged from###all obligations related to any claim'
p3
aS'k--k###take###steps'
p4
aS'gm--gm###assumed###the obligation'
p5
aS'abc--abc###also quoted###the attorney'
p6
aS'kim--kim###had previously ordered###the execution of 15 senior officials'
p7
aS"kim--kim###took over after###his father 's death"
p8
aS'gm--gm###wins###dismissal of uaw retiree benefit lawsuit appeal'
p9
aS'cme--cme###should "develop###strategies to identify instances of spoofing'
p10
aS'gm--gm###wins###dismissal of uaw retiree benefit suit appeal'
p11
aS'gm--gm###be forever discharged from###all obligations related to any claim arising in connection with ...the gm bankruptcy proceedings concerning the provision of retiree medical benefits'
p12
aS'k--k###take steps to protect themselves in###the event of a sharp spike'
p13
aS'cme--cme###directed###enforcement'
p14
aS'kim--kim###had previously ordered the execution of 15 senior officials as###punishment'
p15
atRp16
.c__builtin__
set
p1
((lp2
S"apache--apache 's board###had recommended back the measure unlike###boards"
p3
aS'target--the current inflation target###have had for###20 years and clearly the bar is extremely high'
p4
aS'united continental holdings--risk advisory group plc###be reviewed public data on###delta air lines inc , united continental holdings inc , american airlines group inc and the companies with which they have merged to arrive at the $ 70 billion figure'
p5
aS'quanta services--quanta fiber networks inc###is owned by###quanta services inc'
p6
aS'nasdaq--the nasdaq composite###added 47.69 points , or 0.96 percent , to###5,029.38.'
p7
aS'symantec--symantec best known for its norton antivirus software###also forecast revenue sending###its shares'
p8
aS'delta air lines--risk advisory group plc###be reviewed public data on###delta air lines inc , united continental holdings inc , american airlines group inc and the companies with which they have merged to arrive at the $ 70 billion figure'
p9
aS'target--a bigger trend###is###the investor shift to target date fund ( tdf) series ,'
p10
aS'u.s. dollar--you###do still see###large amounts of u.s. dollar longs'
p11
aS'mosaic--mosaic###be maker of###fertilizer'
p12
aS'nvidia--nvidia###expects to have chips on###than 32 million vehicles'
p13
aS"blackrock--cetorelli###explicitly referred to###blackrock 's securities lending practices"
p14
aS'applied materials--applied materials inc###reported###a 3.8 percent rise'
p15
aS'gap--a narrowing yield gap###has also supported###the euro'
p16
aS'target--they###expect###inflation to remain around their 3 percent target this year and close 2015 slightly below that level'
p17
aS'mosaic--mosaic###raised###its quarterly dividend'
p18
aS'waters--shell oil rig###arrives in###seattle waters'
p19
aS'citigroup--citigroup###acted as###sole bookrunner'
p20
aS'eaton--eaton and his partner###worked with###a nepali army team that had a helicopter'
p21
aS'intel--intel corp###which has been circling in###recent months'
p22
aS'symantec--antivirus and security software maker symantec corp###reported###a 6.6 percent fall hurt by a strong dollar and lower demand for its consumer security products'
p23
aS'nasdaq--the nasdaq composite###added###41.07 points , or 0.82 percent'
p24
aS'u.s. dollar--the u.s. dollar###held near###its lowest'
p25
aS'symantec--symantec quarterly revenue###falls###6.6 pct'
p26
aS'apple--apple shares###rose###2.33 percent'
p27
aS'apache--apache shareholders###approve###proxy access proposal'
p28
aS'target--the target###be reviews by###the bank'
p29
aS'american airlines--risk advisory group plc###be reviewed public data on###delta air lines inc , united continental holdings inc , american airlines group inc and the companies with which they have merged to arrive at the $ 70 billion figure'
p30
aS"apache--apache 's board###had recommended investors back###the measure"
p31
aS'mosaic--mosaic###raised its quarterly dividend from###25 cents'
p32
aS'nvidia--nvidia###wants to leap to###self-driving cars'
p33
aS"ball--the ball###'s in###their court"
p34
aS"gap--a big generational gap###looms once###reed 's cohort retires"
p35
aS'waters--complete responsibility###arises from###their attempt to enter yemeni waters'
p36
aS"target--beijing 's growth target of around 7 percent###is already at###risk"
p37
aS'u.s. dollar--the greenback###be measures by###the u.s. dollar index'
p38
aS'blackrock--blackrock and other asset managers###have come in###the years'
p39
aS'nvidia--nvidia###wants to leap from###video games'
p40
aS"blackrock--blackrock###cited###cetorelli 's december 2014 paper"
p41
aS'nasdaq--the nasdaq composite###added###63.43 points , or 1.27 percent'
p42
aS'nvidia--nvidia###to leap from###video games'
p43
aS'symantec--symantec revenue###misses street on###strong dollar'
p44
aS'nasdaq--the nasdaq composite###gained###22.62 points , or 1.08 percent'
p45
aS'target--executive comments###lifted###its annual margin target'
p46
aS'southern--rival china southern###will be flying to###nairobi'
p47
aS'nvidia--nvidia###expects by###2020'
p48
aS'symantec--symantec best known for its norton antivirus software###also forecast weaker-than-expected first-quarter profit sending###its shares'
p49
aS'target--we###have had###the current inflation target'
p50
aS'citigroup--citigroup###has experienced###growth'
p51
aS'general electric--( ge.n ) aviation###be unit of###general electric'
p52
aS'duke energy--duke energy corp###pleaded guilty on###thursday'
p53
aS'symantec--symantec best known for its norton antivirus software###also forecast###weaker-than-expected first-quarter profit and revenue'
p54
aS'nvidia--nvidia###is still a niche player with###a long way to go to crack the top league of traditional automotive chip suppliers'
p55
aS'southern--the southern california city of san bernardino###wants to repay###its pension bondholders'
p56
aS'southern--southern california###be city in###san bernardino'
p57
aS'u.s. dollar--the u.s. dollar index###held near###a low of 93.133 hit'
p58
aS'target--the current inflation target###have had in###place'
p59
aS'blackrock--blackrock and other asset managers###have come since###the 2007-2009 financial crisis'
p60
aS"apple--apple 's quarterly dividend###was###payable"
p61
aS"nvidia--nvidia 's automotive sales###represented just 4 percent of the company 's $ 4.7 billion annual revenue in###its most recent fiscal year"
p62
aS'boeing--a320 and boeing###to fly by###end-2015'
p63
aS'apache--apache###drills as well as in###texas'
p64
aS'nvidia--nvidia###to make###the jump'
p65
aS'intel--chip maker intel###said in###last month'
p66
aS'nvidia--nvidia engineers###be early in their relationship took on###a trip'
p67
aS'nvidia--nvidia###brings###unparalleled graphics capabilities that could prove critical building blocks " for driver assistance systems'
p68
aS'u.s. dollar--the u.s. dollar index###remained near###a low of 93.133 hit'
p69
aS'apple--apple shares###rose###2.22 percent'
p70
aS'coach--hockey fans###were scrambling to###book vehicles ranging from sedans to coach buses to get them to new york in time to watch the washington capitals play the new york rangers for game 7 of the stanley cup playoffs on wednesday night'
p71
aS"duke energy--duke energy 's crimes###reflect###a breach of the public trust and a lack of stewardship"
p72
aS"cisco systems--cisco systems inc 's ( csco.o ) quarterly profit###edged as###demand"
p73
aS'united continental holdings--etihad###meanwhile charged###delta air lines inc , united continental holdings inc and american airlines group inc'
p74
aS'apache--apache###drills as well as in###the egyptian desert'
p75
aS'mosaic--u.s. fertilizer producer mosaic co###said on###thursday'
p76
aS'southern--the southern california city of diamond bar###be represents by###senate republican leader robert huff'
p77
aS'target--the central bank###to raise###the target'
p78
aS'nasdaq--the nasdaq composite###gained###15.18 points , or 0.72 percent'
p79
aS'duke energy--duke energy corp###pleaded guilty spill into###a river and management of coal ash basins'
p80
aS'mosaic--fertilizer producer mosaic co###said on###thursday'
p81
aS'starbucks--several corporations###have taken###steps to improve compensation for service workers , including walmart , costco and starbucks'
p82
aS'principal financial--its hong kong pension business###be sold to###principal financial'
p83
aS'nvidia--nvidia###had to go back to###its suppliers'
p84
aS'home depot--the former home depot executive###said on###an earnings call'
p85
aS'blackrock--blackrock###wrote###the paper'
p86
aS"u.s. dollar--canada 's main stock index###broke a three-day slide in###a broad rally in which gold miners gained on higher bullion prices as the u.s. dollar weakened"
p87
aS'amazon.com--the multi-billion dollar firms###be set up from###the likes of amazon.com'
p88
aS"cisco systems--cisco systems inc 's quarterly profit###edged as###demand"
p89
aS'citigroup--citigroup###be bolster in###uae , bahrain and poland'
p90
aS"apache--apache 's board###had recommended back the measure at###some other companies that have resisted a push"
p91
aS"apache--he###said of###apache 's six-decade history"
p92
aS'lockheed martin--united launch alliance###be a joint venture of###lockheed martin corp and boeing co'
p93
aS'southern--passengers###to be get from###southern new jersey'
p94
aS'nvidia--nvidia###to leap to###self-driving cars'
p95
aS'nasdaq--the nasdaq composite###gained 22.59 points , or 1.08 percent , to###2,121.07'
p96
aS'southern--john suttles###be an attorney with###the southern environmental law center'
p97
aS'nvidia--nvidia engineers###learned###the hard way they could not just pop a chip'
p98
aS'nvidia--nvidia###got###coaching'
p99
aS'nasdaq--the nasdaq composite###recorded###101 new highs and 29 new lows'
p100
aS'u.s. dollar--large amounts of u.s. dollar longs###do still see amongst###the asset manager community'
p101
aS'apple--significant premiums###be commanding from###the likes of apple'
p102
aS'nasdaq--the nasdaq composite###gained 15.18 points , or 0.72 percent , to###2,113.66'
p103
aS'xilinx--avago###shows in###xilinx'
p104
aS'apple--apple ( aapl.o ) shares###rose###2.33 percent'
p105
aS'eaton--eaton and his partner###wore###cowboy hats , t-shirts and jeans'
p106
aS'nasdaq--the nasdaq composite###had in###its strongest day'
p107
aS'u.s. dollar--a three-day slide###be broke in###a broad rally in which gold miners gained on higher bullion prices as the u.s. dollar weakened'
p108
aS'nasdaq--the nasdaq composite###added 41.07 points , or 0.82 percent , to###5,022.76'
p109
aS'u.s. dollar--the u.s. dollar###held against###a currency basket'
p110
aS"delta air lines--delta air lines inc and us airways websites###showed###no seats left on wednesday 's shuttle flights between new york and washington"
p111
aS"u.s. dollar--the u.s. dollar###fell with###wednesday 's underwhelming april retail sales numbers"
p112
aS'delta air lines--delta air lines###expects###choppy unit revenue'
p113
aS'boeing--the approach###be taken by###airbus and boeing'
p114
aS'nvidia--the plant tour###"helped###nvidia'
p115
aS'target--j.c. penney co inc###lifted###its annual margin target'
p116
aS'southern--it###doubled up train cars on a light rail line to get passengers from###southern new jersey'
p117
aS'target--the fed###has###a 2 percent inflation target'
p118
aS'starbucks--several corporations###have taken###steps to improve compensation for service workers , including walmart , costco ( cost.o ) and starbucks ( sbux.o )'
p119
aS'nasdaq--the nasdaq composite .ixic###added 69.10 points , or 1.39 percent , to###5,050.80'
p120
aS"ball--the ball###was now athens in###greece 's court"
p121
aS'mosaic--mosaic###be maker for###fertilizer'
p122
aS'goldman sachs--goldman sachs###led###the first-lien loan'
p123
aS'southern--southern california###be city of###san bernardino'
p124
aS'nasdaq--the nasdaq composite###added 69.10 points , or 1.39 percent , to###5,050.80'
p125
aS"apache--apache 's board###had recommended investors back at###some other companies that have resisted a push"
p126
aS"harris--the framework###was developed prosecutors offices around the state and local police departments by###harris ' office"
p127
aS'applied materials--applied materials revenue###rises###3.8 pct'
p128
aS'nvidia--nvidia###to have chips on###than 32 million vehicles'
p129
aS'target--its annual margin target###be lifted in###a sign the department store chain is getting a better grip on costs'
p130
aS"intel--japan 's renesas electronics corp and u.s. chipmakers texas instruments inc , intel corp and qualcomm inc###dominate###the automotive chip business"
p131
aS'nasdaq--the nasdaq composite###had since###january'
p132
aS'nvidia--self-driving cars nvidia###has made###the leap'
p133
aS'target--the target###was###just 30 metres'
p134
aS'apache--the proposal###was approved by###85 percent of apache shares present and voting'
p135
aS'american airlines--etihad###meanwhile charged###delta air lines inc , united continental holdings inc and american airlines group inc'
p136
aS'target--j.c. penney posts###lifts###margin target'
p137
aS'nasdaq--the nasdaq composite###was recording###87 new highs and 24 new lows'
p138
aS'nasdaq--the nasdaq composite###added 63.43 points , or 1.27 percent , to###5,045.12'
p139
aS'goldman sachs--may 14 goldman sachs and credit suisse###sold###$ 388 million loans backing the merger between fragrance sample providers bioplan and arcade marketing at a loss this week on their third trip to the market'
p140
aS'nvidia--nvidia###is still###a niche player'
p141
aS'nasdaq--the nasdaq composite###gained###20.43 points , or 0.97 percent'
p142
aS'citigroup--pricing###is expected through###sole bookrunner citigroup'
p143
aS'crown castle international--crown castle international corp###be operator for###telecommunications tower'
p144
aS'nvidia--nvidia###expects to have###chips'
p145
aS'symantec--symantec###be best known for###its norton antivirus software'
p146
aS'nvidia--nvidia###to go back to###its suppliers'
p147
aS"cisco systems--cisco systems inc 's quarterly profit###edged past###market estimates"
p148
aS'target--the target###to be raise above###the current 2 percent given the difficulties'
p149
aS'nvidia--car companies###use###nvidia \'s " supercomputer'
p150
aS'target--a 2 percent inflation target###be has by###the u.s. central bank'
p151
aS'u.s. dollar--the u.s. dollar###fell to###its weakest level'
p152
aS"blackrock--blackrock 's white paper due###lays out###responses"
p153
aS'symantec--symantec revenue###misses###street'
p154
aS"hologic--the deals###included###hologic inc 's 2012 acquisition of gen-probe inc"
p155
aS'u.s. dollar--the u.s. dollar###held since###january'
p156
aS"cisco systems--cisco systems inc 's ( csco.o ) quarterly profit###edged past###market estimates"
p157
aS'mosaic--a mosaic of state and central levies###would be harmonise into###a national sales tax'
p158
aS'blackrock--blackrock inc###pushed back against###arguments'
p159
aS'southern--the northern delta and southern midwest region###be overseen by###the federal reserve bank of st . louis'
p160
aS"u.s. dollar--the u.s. dollar###was off###the day 's lows"
p161
aS'target--a 2 percent inflation target###be has by###the fed'
p162
aS'nvidia--it###took for###nvidia'
p163
aS'target--the bank which reviews the target every five years###said in###last year'
p164
aS"nvidia--nvidia 's automotive sales###represented###just 4 percent of the company 's $ 4.7 billion annual revenue"
p165
aS'blackrock--blackrock and other asset managers###have come under###the regulatory microscope'
p166
aS"symantec--antivirus and security software maker symantec corp 's quarterly profit and revenue###missed###wall street estimates"
p167
aS'delta air lines--etihad###meanwhile charged###delta air lines inc , united continental holdings inc and american airlines group inc'
p168
aS'nasdaq--the nasdaq composite###gained 14.65 points , or 0.7 percent , to###2,113.13'
p169
aS'morgan stanley--joseph moore###be analyst of###morgan stanley'
p170
aS'nvidia--we###told###the nvidia guys'
p171
aS'southern--rival china southern###will be flying from###guangzhou'
p172
aS'u.s. dollar--you###be large amounts of###u.s. dollar longs'
p173
aS'duke energy--duke energy corp###pleaded guilty to###environmental crimes'
p174
aS'nasdaq--the nasdaq composite###added###69.10 points , or 1.39 percent'
p175
aS"intel--chipmaker 's rivals###include###intel"
p176
aS'goldman sachs--pimco###has tried to diversify###its investor base to include those buying equity products and even tapped former goldman sachs banker neel kashkari ,'
p177
aS'principal financial--french insurer axa sa###sold its hong kong pension business to###principal financial'
p178
aS'general motors--general motors co###said on###tuesday'
p179
aS'nasdaq--the nasdaq composite###gained###22.59 points , or 1.08 percent'
p180
aS'nasdaq--the nasdaq composite###gained###14.65 points , or 0.7 percent'
p181
aS'apache--may 14 apache corp shareholders###approved###a proposal to allow minority shareholders to nominate directors to the board of the company'
p182
aS"apple--apple 's quarterly dividend###was payable on###thursday"
p183
aS'boeing--united launch alliance###be a joint venture of###lockheed martin corp and boeing co'
p184
aS'nvidia--nvidia###had###a thriving business'
p185
aS'nvidia--nvidia###be the jump into###the fast-growing market'
p186
aS'goldman sachs--goldman sachs , visant and ileos###did not return###calls'
p187
aS'citigroup--citigroup###focuses on###growth areas'
p188
aS'citigroup--cetorelli###explicitly referred as###an example how asset managers may behave like banks such as jp morgan chase and citigroup'
p189
aS'nvidia--it###took###silicon valley chipmaker nvidia corp'
p190
aS'nvidia--self-driving cars nvidia###has made the leap to infotainment systems in###vehicles'
p191
aS"apache--apache 's board###had recommended investors back unlike###boards"
p192
aS'target--update 2-j.c. penney posts###lifts###margin target'
p193
aS'nvidia--audi executives###early in their relationship took###nvidia engineers'
p194
aS'mosaic--mosaic###announced on###wednesday'
p195
aS'mosaic--fertilizer maker mosaic###to buy back $ 1.5 billion in shares###hikes dividend'
p196
aS'crown castle international--crown castle international corp###be operator of###telecommunications tower'
p197
aS'nasdaq--the nasdaq composite###gained 20.43 points , or 0.97 percent , to###2,118.91'
p198
aS"gap--silicon valley###has come under###increasing pressure to close the income gap given california 's high cost"
p199
aS'delta air lines--delta air lines inc###expects to see###some " choppiness'
p200
aS'nasdaq--the nasdaq composite###gained 22.62 points , or 1.08 percent , to###2,121.1'
p201
aS'ball--he###said###the ball'
p202
aS'nvidia--nvidia###be the jump from###the world of computers'
p203
aS'blackrock--blackrock###wrote in###the paper'
p204
aS'u.s. dollar--the u.s. dollar###held on###thursday'
p205
aS'mosaic--mosaic###raised its quarterly dividend to###27-1/2 cents'
p206
aS"apache--apache###was###one of about 75 companies to receive stringer 's proposal on proxy access"
p207
aS'nasdaq--the nasdaq composite###added###47.69 points , or 0.96 percent'
p208
aS"target--annual inflation###has remained above###the central bank 's 2 percent to 4 percent target range"
p209
atRp210
.