c__builtin__
set
p1
((lp2
S'cbg###be miner of###guinea bauxite'
p3
aS'abc###to buy###the entire business'
p4
aS'gm###is the fourth-cheapest stock with###starmine'
p5
aS'dow###will have###representatives'
p6
aS'abc###said on###friday'
p7
aS'cbg###had signed###other supply deals which required it to invest heavily to expand its production capacity'
p8
aS'kim###also told the briefing###beijing'
p9
aS'kim###represented###the united states'
p10
aS'gm###is###the fourth-cheapest stock estimating that shares should trade at $ 81.69 , more than twice its thursday closing price of $ 36.39'
p11
aS'kim###represented the united states with###its two important asian allies'
p12
aS'gm###is the fourth-cheapest stock in###the s&p'
p13
aS'gm###is the fourth-cheapest stock by###this metric'
p14
aS'kim###represented the united states in###talks'
p15
aS'gm###is up 3 percent on###the year'
p16
aS'wu###told###reuters'
p17
aS'abc###to buy###the business'
p18
aS'dow###will have representatives at###the meeting'
p19
aS'kim###also told###the briefing'
p20
aS'abc###could not be reached for###immediate comment'
p21
aS'cbg###is###51 percent owned by halco mining consortium controlled by aluminium producer alcoa'
p22
aS'abc###has gone is through###significant management changes'
p23
aS"key###rating###drivers the dominican republic 's ratings are underpinned by its higher per capita income and more diversified economic structure than peers"
p24
aS'kim###also told the briefing in###beijing'
p25
aS'gm###recalls###heavy duty trucks'
p26
atRp27
.c__builtin__
set
p1
((lp2
S'morgan stanley###forecasts###a smaller increase'
p3
aS'intel###to offer $ 54 per share###source'
p4
aS'the nasdaq composite###slid 7.33 points , or 0.35 percent , to###2,113.46'
p5
aS'deal###would be largest acquisition of###intel'
p6
aS'the nasdaq composite###slid###13.4 points , or 0.63 percent'
p7
aS'joe manimbo###be senior market analyst at###western union business solutions'
p8
aS'goldman sachs###ramped up###its rating'
p9
aS'dow agrosciences###be a unit of###dow chemical co.'
p10
aS'merck immunotherapy###appears effective in###head and neck cancer-study'
p11
aS'aakash doshi###be analyst of###citigroup research'
p12
aS"spot wti###jumped almost 5 percent###its biggest daily gain driven by the eia data and a pause in the u.s. dollar 's rally"
p13
aS'the 2014 target###remains###significant'
p14
aS'telecity###was advised by###goldman sachs , oakley capital , barclays'
p15
aS'the nasdaq###rose###2.60 percent'
p16
aS'a houston-based company###be hired by###chevron'
p17
aS'goldman sachs###argues###shale oil producers'
p18
aS'pepsi-cola shareholders pepsico inc and lotte chilsung beverage co ltd###have###a broad portfolio of products'
p19
aS'humana###is working with###goldman sachs'
p20
aS'the nasdaq composite .ixic###lost 27.95 points , or 0.55 percent , to###5,070.03'
p21
aS'parker gilbert###be chairman of###morgan stanley'
p22
aS') and gold miner newmont mining###sold the hope bay project to###tmac'
p23
aS'traffic###is growing fastest in###the states of the southern atlantic seaboard'
p24
aS'equinix###announced###its interest'
p25
aS'857###fell on###the nasdaq'
p26
aS'tesoro corp###be refiner for###u.s. oil'
p27
aS'equinix inc###be company for###u.s. data center'
p28
aS'inflation###remained above###target'
p29
aS'1,039###fell on###the nasdaq'
p30
aS'bank of america corp###agreed with###u.s. regulators'
p31
aS'intel###was up 1.4 percent to $ 34.49 after###the new york post'
p32
aS'apple###uses in###a range of products'
p33
aS'equinix###to buy###telecitygroup'
p34
aS'center company equinix inc###said on###friday'
p35
aS'coca-cola###said in###an email'
p36
aS'the nasdaq composite###lost 29.72 points , or 0.58 percent , to###5,068.26'
p37
aS'avago###was advised by###deutsche bank , bank of america , barclays , citigroup and credit suisse'
p38
aS'chevron###called to bring the well fire under###control'
p39
aS'discount retailer dollar tree inc###agreed to sell###330 family dollar stores inc fdo.n stores'
p40
aS'banking chief gordon smith###be consumer of###jpmorgan chase'
p41
aS'broadcom###was advised by###jpmorgan chase'
p42
aS'equinix###has###a strong balance sheet'
p43
aS'humana###hits record on###takeover interest'
p44
aS"may 29 u.s. oil refiner tesoro corp###has slammed###the u.s. government 's proposal"
p45
aS'adidas , visa and coca-cola###urged fifa in###last week'
p46
aS'adidas , visa and coca-cola###urged###fifa'
p47
aS'the nasdaq composite###lost 27.28 points , or 0.54 percent , to###5,070.70'
p48
aS"inflation###to be reduce at###the center of the government 's target range"
p49
aS"broadcom 's shares###closed down 1.5 percent on###thursday"
p50
aS"u.s. oil refiner tesoro corp###has slammed###the u.s. government 's proposal"
p51
aS'apple###buys###german augmented-reality software maker'
p52
aS'skadden , arps , slate , meagher & flom llp###is the legal adviser to###broadcom'
p53
aS'humana###jumped###as much as 18 percent'
p54
aS'intel###gave the biggest boost to###the dow and the s&p'
p55
aS'humana###hits record on takeover interest###insurers gain'
p56
aS'bank of america###to improve###compliance practices , pay'
p57
aS'coca-cola co###urged fifa to take###concrete actions to address the issues'
p58
aS'merck shares###rose###than 1 percent'
p59
aS'schlumberger and halliburton###responded to###the plunge'
p60
aS'tesoro corp###be refiner of###may 29 u.s. oil'
p61
aS"a boat packed with 727 people off the country 's southern coast on friday###be seized about###a week"
p62
aS') and gold miner newmont mining###sold the hope bay project in###2013'
p63
aS'their children###be clear of###flood waters'
p64
aS'chevron###to bring###the well fire'
p65
aS'the second protected gray wolf###to be killed in###the southern rockies'
p66
aS'avago technologies ltd###agreed to buy###broadcom corp'
p67
aS'intel and altera###signed###a standstill agreement'
p68
aS"intel###signed a standstill agreement with altera that expires on june 1 giving the world 's largest chipmaker###the option to launch a hostile bid after that"
p69
aS'the nasdaq composite###slid###12.95 points , or 0.61 percent'
p70
aS'the nasdaq composite###slid 12.95 points , or 0.61 percent , to###2,107.84'
p71
aS'intel###made an unsolicited $ 54 per share offer for altera in###april'
p72
aS'intel and altera###did not respond to###requests'
p73
aS'equinix inc###be company of###u.s. data center'
p74
aS'the nasdaq composite###slid###7.33 points , or 0.35 percent'
p75
aS'u.s. data center company equinix inc###said on###friday'
p76
aS'shares of bristol-myers squibb###tumbled 6.6 percent , its biggest daily drop since 2012 following###a company presentation'
p77
aS'halliburton###responded to###the plunge'
p78
aS'the fifa ship###be guiding into###out of troubled waters and into a placid harbor'
p79
aS'chevron###to bring the well fire under###control'
p80
aS'discount retailer dollar tree inc###agreed to sell 330 family dollar stores inc fdo.n stores to###private equity firm sycamore partners'
p81
aS'gordon smith###be chief for###jpmorgan chase consumer banking'
p82
aS'tesoro###signaled of###a lengthy legal fight'
p83
aS'the nasdaq###recorded###51 new highs and 23 new lows'
p84
aS'gordon smith###be chief of###jpmorgan chase consumer banking'
p85
aS'it###also revised###the 2014 target'
p86
aS'a pfizer spokesman###declined to comment on###the takeover talk which he described as "rumor and speculation "'
p87
aS'health insurer humana inc###is has received###indications of takeover interest'
p88
aS"the purchase of telecity###would be the largest transaction in###equinix 's history"
p89
aS'another threat lurking in flood waters###is stinging###fire ants'
p90
aS'preliminary merger discussions###have held with###humana'
p91
aS'intel###to bundle###its own server chips'
p92
aS'goldman sachs group inc###appointed###david wells'
p93
aS'tesoro corp###be refiner of###u.s. oil'
p94
aS'intel###really needed###them'
p95
aS'intel and altera###had restarted###talks'
p96
aS'avago technologies###agreed to buy###rival chipmaker broadcom corp'
p97
aS"the central bank###has vowed to reduce inflation at###the center of the government 's target range"
p98
aS'dollar tree###said###april'
p99
aS'discount retailer dollar tree inc###agreed to sell 330 family dollar stores inc stores to###private equity firm sycamore partners'
p100
aS"chevron 's supervision of cameron contract employees###was###spotty"
p101
aS'aetna inc and cigna corp###are among###the possible bidders'
p102
aS'coca-cola###said on###friday'
p103
aS"the central bank###to reduce inflation at###the center of the government 's target range"
p104
aS'apple inc###has acquired###metaio'
p105
aS'equinix###is###open'
p106
aS'the combined company to be based in singapore and known as broadcom###will be the third-largest u.s. semiconductor maker behind###intel corp'
p107
aS'the islands which china built on previously submerged reefs###could claim###12 miles of territorial waters'
p108
aS"myanmar 's navy###seized###a boat packed with 727 people off the country 's southern coast on friday"
p109
aS'may 29 bristol-myers squibb###has sued###a top cancer immunotherapy executive'
p110
aS'the nasdaq composite###slid 13.4 points , or 0.63 percent to###2,107.39'
p111
aS'coca-cola co###urged###fifa'
p112
aS'the nasdaq composite###lost 27.95 points , or 0.55 percent , to###5,070.03'
p113
aS') and gold miner newmont mining###sold the hope bay project in###nunavut'
p114
aS'medical device maker medtronic plc###to beat###wall street expectations'
p115
aS'humana###is going to be selling itself to###another mega player and the antitrust division'
p116
aS'intel###has also been to buy###chipmaker altera corp'
p117
aS'brazilian aircraft manufacturer embraer###has mandated###citigroup and morgan stanley'
p118
aS'broadcom###is best known for###its connectivity chips which are used widely in smartphones'
p119
aS'the nasdaq###lost###0.4 percent'
p120
aS'goldman sachs group inc###be appointed david wells to###a newly created role'
p121
aS'51 percent owned by halco mining consortium###be controlled by###aluminium producer alcoa'
p122
aS'cbg###is###51 percent owned by halco mining consortium controlled by aluminium producer alcoa'
p123
aS'coca-cola###said###an email'
p124
aS'coca-cola###urges###fifa'
p125
aS'engine glitch medium-haul planes###are significant sources of cash for###airbus and boeing'
p126
aS'the fifa ship###be guiding into###out of troubled waters and into a placid harbour'
p127
aS'associated british foods###was adding###2.6 percent to reach two-month highs after goldman sachs ramped up its rating to "buy " from " sell"'
p128
aS'merck immunotherapy###appears###effective'
p129
aS'avago technologies###to buy###rival chipmaker broadcom corp'
p130
aS'adidas , visa and coca-cola###urged fifa to take seriously###reports of abuse of migrant workers who are helping to build venues for the 2022 world cup'
p131
aS'the nasdaq composite###lost###29.72 points , or 0.58 percent'
p132
aS'apple###is now sole shareholder of###the company'
p133
aS'opec###to maintain###a collective output target of 30 million barrels'
p134
aS"it###counts###dell inc , geico , directv , google inc , microsoft corp , nestle 's nespresso and hearst"
p135
aS"wellington###puts the lie to###the current accepted wisdom that active management ca n't outperform"
p136
aS'the partnership###was unusual for###intel'
p137
aS'the environmental protection agency###decided to raise###its previous target'
p138
aS'the combined company###to be based as###broadcom'
p139
aS'discount retailer dollar tree inc###to sell###330 family dollar stores inc fdo.n stores'
p140
aS'comment and apple###issued###a statement'
p141
aS'the nasdaq###fell###0.9 percent'
p142
aS'they###had waited in###thai territorial waters'
p143
aS'apple###generally do not comment on###our purpose or plans'
p144
aS'humana###jumped###20.3 percent'
p145
aS'dollar tree inc###be retailer for###discount'
p146
aS'american express co###said###president ed gilligan'
p147
aS'intel and altera###signed a standstill agreement in###this year'
p148
aS'apple###buys smaller technology companies do to###time'
p149
aS'citigroup and jp morgan###are acting as###global coordinators'
p150
aS'the nasdaq composite###dropped 27.95 points , or 0.55 percent , to###5,070.03'
p151
aS'intel###gave###the biggest boost'
p152
aS'the retroactive target###remains###significant'
p153
aS'dollar tree inc###be retailer of###discount'
p154
aS'the nasdaq composite###was down 5.80 points , 0.11 percent , at###5,092.17'
p155
aS'broadcom shareholders###will own###about 32 percent of the combined company'
p156
aS'avago technologies ltd###to buy###broadcom corp'
p157
aS'the combined company to be based in singapore and known as broadcom###will be the third-largest u.s. semiconductor maker by###revenue'
p158
aS"it###would also underscore###intel chief executive officer brian krzanich 's determination"
p159
aS'broadcom###be approached again with###higher offers'
p160
aS'humana###is working on###a potential sale'
p161
aS'humana###jumped 20.3 percent to###a record high'
p162
aS'avago###to buy###broadcom'
p163
aS"the biggest drop###was###the industrial sector 's 0.71 percent leading the losers after bank of america merrill lynch downgraded the stock"
p164
aS'coca-cola###urges fifa to address###issues'
p165
aS'intel###signed###a standstill agreement that expires on june 1'
p166
aS'merck shares###rose more than 1 percent on###the new york stock exchange'
p167
aS'former ebay executives###be includes by###the westly group'
p168
aS'smartphones###be made by###apple inc'
p169
aS'the nasdaq composite###dropped###27.95 points , or 0.55 percent'
p170
aS"broadcom 's shares###closed down 1.5 percent in###thursday"
p171
aS"international tourists###meanwhile can visit a small diving resort on malaysia 's swallow reef in###the southern reaches of the spratlys"
p172
aS'anthem###may also look at###humana'
p173
aS'dollar tree###said in###april'
p174
aS'telecitygroup shareholders###would would join###the board of equinix'
p175
aS'goldman sachs###ramped up its rating to "buy from###sell"'
p176
aS'update 3-health insurer humana###explores###sale'
p177
aS'the 2014 target###remains significant in###2015'
p178
aS'the new broadcom###would have###annual revenue of $ 15 billion and an enterprise value of $ 77 billion'
p179
aS'the environmental protection agency###to raise###its previous target'
p180
aS'its joint production target###be unchanged at###30 million barrels'
p181
aS'retailer dollar general corp###will report first-quarter results on###tuesday'
p182
aS'declining issues###fell on###the nasdaq'
p183
aS'chevron###called###specialty fire fighting crews'
p184
aS"intel###to bundle its own server chips with###altera 's line of programmable chips"
p185
aS'may 29 general motors co###is recalling###about 375,000 heavy duty pickup trucks'
p186
aS'the nasdaq composite###lost###27.28 points , or 0.54 percent'
p187
aS'banking chief gordon smith###be consumer for###jpmorgan chase'
p188
aS'time warner cable###be advised on###its second approach'
p189
aS'a small diving resort###meanwhile can be visit in###the southern reaches of the spratlys'
p190
aS'apple###buys smaller technology companies do from###time'
p191
aS'avago###approached again###broadcom'
p192
aS'bbva , bank of america merrill lynch , citigroup , goldman sachs , hsbc , morgan stanley and scotiabank###to organize###the fixed-income investor meetings'
p193
aS'the time warner deal###also propelled###cable m&a'
p194
aS'the nasdaq###recorded###64 new highs and 26 new lows'
p195
aS"its biggest daily gain driven by the eia data and a pause in the u.s. dollar 's rally###be jumped almost 5 percent on###friday"
p196
aS'the nasdaq composite###slid 12.75 points , or 0.6 percent to###2,108.04'
p197
aS'goldman sachs group inc###appointed david wells to###a newly created role'
p198
aS'bank of america corp###to improve###its compliance practices'
p199
aS'goohoon kwon###be an economist at###goldman sachs'
p200
aS'retailer dollar general corp###will report###first-quarter results'
p201
aS'pepsi-cola shareholders pepsico inc and lotte chilsung beverage co ltd###have a broad portfolio of products within###these categories'
p202
aS'morgan stanley###said###a note'
p203
aS'the nasdaq composite###recorded###77 new highs and 36 new lows'
p204
aS'it###wanted###it to be more like apple in the way it innovates , rather than doing a "moonshot " development every 25 years'
p205
aS'tesoro corp###be refiner for###may 29 u.s. oil'
p206
aS'morgan stanley###said in###our view'
p207
aS'it###was###the second protected gray wolf to be killed in the southern rockies by a coyote hunter since october , when a utah man shot "echo , " a female'
p208
aS'the designation###calls for###a retraction from monsanto , and demands'
p209
aS'the proposal###also revised###the 2014 target'
p210
aS"its board###had recommended was###equinix 's offer"
p211
aS'humana###hits###record'
p212
aS'humana###has missed has###analyst expectations'
p213
aS"apple###is now###the company 's sole shareholder"
p214
aS"integrity###be attached to###morgan stanley 's name"
p215
aS'avago and broadcom###first spoke about###a potential merger in october 2014'
p216
aS'the target###was too###high'
p217
aS'republican lawmakers###to plug###the revenue gap'
p218
aS'humana , aetna and cigna###could not be immediately reached for###comment'
p219
aS'the target###was too high for###u.s. refiners'
p220
aS'broadcom co-founder henry nicholas###was advised by###centerview'
p221
aS'bank of america###to improve###compliance practices'
p222
aS'humana inc###( is considering selling###itself'
p223
aS"deal###would be###intel 's largest acquisition"
p224
aS'intel###has also been in###talks'
p225
aS'shares of bristol-myers squibb###tumbled###6.6 percent'
p226
aS'health insurer humana###considering selling###itself'
p227
aS'humana###hits insurers gain###record'
p228
aS'a former morgan stanley chairman###led the firm through###its transition'
p229
aS'chevron###called in###specialty fire fighting crews'
p230
aS'medical device maker medtronic plc###is###likely'
p231
aS'a chevron spokesman###told###reuters'
p232
aS'u.s. dollar net longs###rise after###declining 8 straight weeks -cftc'
p233
aS'another threat###lurking in###flood waters'
p234
aS'no savings target###is for###2015-16'
p235
aS'the nasdaq composite###slid###12.75 points , or 0.6 percent'
p236
aS'the time warner deal###also propelled cable m&a on###year'
p237
aS'the nasdaq###gained###2.6 percent'
p238
aS'valero energy corp###be refiner of###u.s.'
p239
aS'intel###rose###1.5 percent'
p240
aS'the nasdaq composite .ixic###lost###27.95 points , or 0.55 percent'
p241
aS'humana###is going to be selling###itself'
p242
aS'morgan stanley###said in###a note'
p243
aS"it###would be###intel 's largest"
p244
aS'discount retailer dollar tree inc###to sell 330 family dollar stores inc stores to###private equity firm sycamore partners'
p245
aS"humana 's top shareholders###include###glenview capital management"
p246
aS'a pfizer spokesman###to comment on###the takeover talk which he described as "rumor and speculation "'
p247
aS'an email sent by fiat chrysler automobiles chief sergio marchionne to general motors ( gm ) about a possible merger was not the only such conversation fca has had with other industry players###said on###friday'
p248
aS'merck###donated###the study drug'
p249
aS'the nasdaq composite .ixic###dropped###27.95 points , or 0.55 percent'
p250
aS'henry nicholas###be co-founder of###broadcom'
p251
aS'discount retailer dollar tree inc###agreed to sell###330 family dollar stores inc stores'
p252
aS'discount retailer dollar tree inc###to sell###330 family dollar stores inc stores'
p253
aS'the nasdaq composite .ixic###dropped 27.95 points , or 0.55 percent , to###5,070.03'
p254
aS'altera###rises on###report of intel interest'
p255
aS'company equinix inc###be center of###u.s. data'
p256
aS'the nasdaq composite###lost###27.95 points , or 0.55 percent'
p257
aS'discount retailer dollar tree inc###to sell 330 family dollar stores inc fdo.n stores to###private equity firm sycamore partners'
p258
aS'the nasdaq composite###lost###11.73 points , or 0.23 percent'
p259
aS'pfizer###acquired###a 9.5 percent stake'
p260
aS'equinix###is open to###further deals'
p261
aS'cellectis###has listed itself on###the nasdaq'
p262
aS'humana###is working with###investment bank goldman sachs group inc'
p263
aS'aakash doshi###be analyst for###citigroup research'
p264
aS'chevron###called to bring###the well fire'
p265
aS'the combined company to be based in singapore and known as broadcom###will be###the third-largest u.s. semiconductor maker'
p266
aS'the biggest single division of the biggest u.s. bank###be runs by###jpmorgan chase consumer banking chief gordon smith'
p267
aS'may 29 parker gilbert###be chairman of###morgan stanley'
p268
aS"boeing 's chief executive jim mcnerney###said in###last year"
p269
aS'the nasdaq composite###lost 11.73 points , or 0.23 percent , to###5,086.24'
p270
aS'humana###is working on###the potential sale'
p271
aS'( m&a ) activity###was boosted in###this week)[enabler=when charter communications ( chtr.o ) said it would acquire larger rival time warner cable ( twc.n ) for $ 56 billion and avago technologies ( avgo.o ) agreed to buy rival chipmaker broadcom corp ( brcm.o '
p272
aS'coach###be wrestling at###the high school'
p273
aS'altera###rejected an unsolicited $ 54 per share offer from###intel'
p274
aS'inflation expectations###have lingering mistrust in###the central bank which slashed rates to record lows in 2011-12 even as inflation remained above target'
p275
aS'the nasdaq###fell 0.9 percent###the dow'
p276
aS'inflation###be accelerate toward###its 2 percent target'
p277
aS'pepsico inc and lotte chilsung beverage co ltd###be shareholders of###pepsi-cola'
p278
aS'bank of america corp###agreed to improve###its compliance practices'
p279
aS'apple###buys do###smaller technology companies'
p280
aS'the nasdaq composite###was down 22.08 points , 0.43 percent , at###5,075.89'
p281
aS'telecity executive chairman john hughes###would would join###the board of equinix'
p282
atRp283
.