c__builtin__
set
p1
((lp2
S'gm###is the fourth-cheapest stock with###starmine'
p3
aS'gm###is the fourth-cheapest stock by###this metric'
p4
aS'gm###is the fourth-cheapest stock in###the s&p'
p5
aS'gm###is up 3 percent on###the year'
p6
aS'gm###is###the fourth-cheapest stock estimating that shares should trade at $ 81.69 , more than twice its thursday closing price of $ 36.39'
p7
atRp8
.c__builtin__
set
p1
((lp2
S'it###tries to assert its claim to###the potentially energy-rich waters'
p3
aS'pfizer###is currently conducting###a study of ibrance'
p4
aS'it###to assert its claim to###the potentially energy-rich waters'
p5
aS'the government###also set###a target'
p6
aS'the surveillance###fills###a critical gap'
p7
aS'the initial 14 shallow water exploration blocks###be located along###the southern rim of the gulf of mexico'
p8
aS'its claim###to assert to be###the potentially energy-rich waters'
p9
aS"issi 's shares###closed on###the nasdaq"
p10
aS"pfizer 's ibrance drug###slows###progression of breast cancer"
p11
aS'buses###traveling on###the southern coast'
p12
aS'the european union###well will step into###unchartered waters and no-one wants'
p13
aS"issi 's shares###closed in###the nasdaq"
p14
aS'pfizer###be announced in###april'
p15
aS'pfizer comment###showed by###deena beasley chicago may 30'
p16
aS'them###be forcing off###buses traveling from the western city of quetta to karachi on the southern coast'
p17
aS'a target###be also set of###building 20,000 greenhouses'
p18
aS'they###are going to fill###this gap'
p19
aS'they###to fill###this gap'
p20
aS'coal india###gets to###its ambitious target of output of 1 billion tonnes'
p21
atRp22
.