(lp1
c__builtin__
set
p2
((lp3
S'marathon oil--marathon oil###seeks###bids'
p4
atRp5
ag2
((lp6
S'google--these cars###were designed by###google , first sentence'
p7
aS'google--google inc###will begin###testing self-driving cars of its own design'
p8
atRp9
ag2
((lp10
S'apple--hedge funds###continued to dump###apple'
p11
aS'apple--hedge funds###to dump###apple'
p12
aS'apple--top u .s###to dump###apple'
p13
aS'apple--top u .s###continued to dump###apple'
p14
aS'apple--apple###to be dump amid###rally'
p15
atRp16
ag2
((lp17
S'marathon oil--marathon oil###seeks###bids'
p18
atRp19
ag2
((lp20
S'johnson & johnson--a widely used newer class of type 2 diabetes drugs sold by astrazeneca , johnson & johnson and eli###may cause###ketoacidosis that could require hospitalization'
p21
atRp22
ag2
((lp23
S'lockheed martin--15 the u .s . air force###may is considering opening to###competition future upgrades of the lockheed martin'
p24
atRp25
ag2
((lp26
S'morgan stanley--morgan stanley###be sue as###a group'
p27
aS'morgan stanley--thousands of detroit homeowners###sue###morgan stanley'
p28
atRp29
ag2
((lp30
S'morgan stanley--morgan stanley###be sue as###a group'
p31
aS'morgan stanley--thousands of detroit homeowners###sue###morgan stanley'
p32
atRp33
ag2
((lp34
S'fedex--fedex###loses u .s###court motion to dismiss drug shipping charges'
p35
atRp36
ag2
((lp37
S'apple--top u .s###continue to dump###apple stakes'
p38
aS'apple--hedge funds###continue to dump###apple stakes'
p39
aS'apple--apple stakes###to be dump amid###rally'
p40
aS'apple--stakes###be slash altogether in###apple inc'
p41
atRp42
ag2
((lp43
S'johnson & johnson--a widely used newer class of type 2 diabetes drugs sold by astrazeneca , johnson & johnson and eli###may cause###high levels of blood acids'
p44
atRp45
ag2
((lp46
S'morgan stanley--morgan stanley###be sue as###a group'
p47
aS'morgan stanley--thousands of detroit homeowners###sue###morgan stanley'
p48
atRp49
ag2
((lp50
S'lockheed martin--united launch alliance###be a joint venture of###lockheed martin corp'
p51
atRp52
ag2
((lp53
S'yum--yum .n###will spin off###its china business'
p54
atRp55
ag2
((lp56
S'delta air lines--delta air lines inc###said on###friday'
p57
aS'delta air lines--delta air lines###offers for###stranded amtrak passengers'
p58
aS'delta air lines--delta air lines###offers###free flights'
p59
atRp60
ag2
((lp61
S'delta air lines--delta air lines inc###said on###friday'
p62
aS'delta air lines--delta air lines###offers for###stranded amtrak passengers'
p63
aS'delta air lines--delta air lines###offers###free flights'
p64
atRp65
ag2
((lp66
S'apple--hedge funds###continued to dump###apple'
p67
aS'apple--top u .s###to dump###apple'
p68
aS'apple--top u .s###continued to dump###apple'
p69
aS'apple--apple###to be dump amid###rally'
p70
aS'apple--hedge funds###to dump###apple'
p71
aS'apple--stakes###be slash altogether in###apple inc'
p72
atRp73
ag2
((lp74
S'google--google versus oracle case###exposes###differences'
p75
aS'google--the obama administration###has been locked over###what position to take in high profile litigation between two american technology giants , google and oracle'
p76
aS'oracle--the obama administration###has been locked over###what position to take in high profile litigation between two american technology giants , google and oracle'
p77
aS'oracle--google versus oracle case###exposes###differences'
p78
atRp79
ag2
((lp80
S'monsanto--seeds giant monsanto###to line up###buyers'
p81
aS'monsanto--seeds giant monsanto###is trying to line up###buyers'
p82
atRp83
a.