(lp1
c__builtin__
set
p2
((lp3
S'facebook--facebook###opens internet .org amid###open web debate'
p4
aS'facebook--facebook###opens###internet .org'
p5
aS'facebook--facebook###opens internet .org to###developers'
p6
atRp7
ag2
((lp8
S'anadarko petroleum--anadarko petroleum co###reported###a wider-than-expected quarterly loss'
p9
atRp10
ag2
((lp11
S'morgan stanley--morgan stanley###said on###monday'
p12
aS'morgan stanley--morgan stanley###said of###it'
p13
aS'morgan stanley--morgan stanley###sees###$ 292 mln loss'
p14
atRp15
ag2
((lp16
S'cisco--cisco veteran robbins###to take over as###ceo'
p17
aS'cisco--cisco systems inc chief executive john chambers###will step down after###20 years'
p18
atRp19
ag2
((lp20
S'bank of america--bank of america merrill lynch###has hired###chris cormier'
p21
atRp22
ag2
((lp23
S'progressive--costs###would be cut in###a bid to turn the fast-food chain into a "modern , progressive burger company'
p24
aS'progressive--he###would cut costs in###a bid to turn the fast-food chain into a "modern , progressive burger company'
p25
aS'progressive--the fast-food chain###to be turn into###a "modern , progressive burger company'
p26
atRp27
ag2
((lp28
S'tenet healthcare--hospital operator tenet healthcare corp###posted a net profit in###the first quarter'
p29
aS'tenet healthcare--hospital operator tenet healthcare corp###posted###a net profit'
p30
aS'tenet healthcare--hospital operator tenet healthcare corp###posted a net profit###the first quarter'
p31
atRp32
ag2
((lp33
S'harris--holcim shareholder harris###has voted up for###lafarge tie'
p34
atRp35
ag2
((lp36
S'bank of america--bank of america plans###vote on###change allowing'
p37
atRp38
ag2
((lp39
S'southwest airlines--a southwest airlines boeing 737 and an atlas air###landed due to###preventable air traffic control errors'
p40
aS'boeing--a southwest airlines boeing 737 and an atlas air###landed due to###preventable air traffic control errors'
p41
aS'boeing--a southwest airlines boeing 737 and an atlas air###landed in###recent years'
p42
aS'southwest airlines--a southwest airlines boeing 737 and an atlas air###landed at###the wrong airports'
p43
aS'southwest airlines--a southwest airlines boeing 737 and an atlas air###landed in###recent years'
p44
aS'boeing--a southwest airlines boeing 737 and an atlas air###landed at###the wrong airports'
p45
atRp46
ag2
((lp47
S'comcast--comcast profit###beats enterprise growth###estimates'
p48
aS'comcast--comcast corp###posted###better-than-expected first-quarter profit driven by strong growth in its high-speed internet and business services'
p49
aS'comcast--comcast profit###beats estimates on internet###enterprise growth'
p50
atRp51
ag2
((lp52
S'morgan stanley--morgan stanley###said on###monday'
p53
aS'morgan stanley--morgan stanley###sees###$ 292 million loss'
p54
aS'morgan stanley--morgan stanley###said of###it'
p55
atRp56
ag2
((lp57
S"general electric--general electric 's ceo###will meet###europe 's antitrust chief"
p58
atRp59
ag2
((lp60
S'eog--oil and natural gas producer eog resources inc###may posted###a quarterly loss'
p61
atRp62
ag2
((lp63
S'tenet healthcare--hospital operator tenet healthcare corp###posted a net profit in###the first quarter'
p64
aS'tenet healthcare--hospital operator tenet healthcare corp###posted###a net profit'
p65
aS'tenet healthcare--hospital operator tenet healthcare corp###posted a net profit###the first quarter'
p66
atRp67
ag2
((lp68
S'bank of america--the obama administration and even bank of america corp###had backed###the homeowner'
p69
atRp70
ag2
((lp71
S'eog--oil and natural gas producer eog resources inc###said on###monday'
p72
atRp73
ag2
((lp74
S'tyson foods--tyson foods###beat###profit estimates'
p75
atRp76
ag2
((lp77
S'anadarko petroleum--anadarko petroleum co###reported###a wider quarterly loss'
p78
aS"anadarko petroleum--anadarko petroleum co###reported a wider quarterly loss###independent oil and natural gas company 's results anadarko"
p79
atRp80
ag2
((lp81
S'bank of america--chris cormier###is joining###bank of america merrill lynch'
p82
atRp83
ag2
((lp84
S'bank of america--the obama administration and even bank of america corp###had backed###the homeowner'
p85
aS'bank of america--a massachusetts man###battling his mortgage lender over abankruptcyplan in###a case in which the obama administration and even bank of america corp had backed the homeowner'
p86
aS'bank of america--his mortgage lender###be battling in###a case in which the obama administration and even bank of america corp had backed the homeowner'
p87
atRp88
ag2
((lp89
S'hp--former hp ceo fiorina###enters###2016 race'
p90
atRp91
ag2
((lp92
S'general electric--general electric co###announced###collaborations'
p93
atRp94
ag2
((lp95
S"general electric--general electric 's ceo###will meet europe 's antitrust chief on###tuesday"
p96
aS"general electric--general electric 's ceo###will meet###europe 's antitrust chief"
p97
atRp98
ag2
((lp99
S'macerich--macerich###settles with###investor group'
p100
aS'macerich--macerich###settles to add###two independent directors'
p101
atRp102
ag2
((lp103
S'bank of america--bank of america plans###vote on###change allowing'
p104
atRp105
ag2
((lp106
S'delta air lines--delta air lines inc###reported###a drop'
p107
atRp108
ag2
((lp109
S'bank of america--the obama administration and even bank of america corp###had backed###the homeowner'
p110
atRp111
ag2
((lp112
S'eog--reuters ) - oil and natural gas producer eog resources inc plans###to begin fracking###hundreds of wells'
p113
atRp114
a.