c__builtin__
set
p1
((lp2
S'eog--eog###can resume###strong double-digit growth'
p3
aS'yum--yum###is not an activist play from###our perspective'
p4
aS'adp--adp###will probably undershoot as###weather swings'
p5
aS'fox--fox###said###third-quarter revenue'
p6
aS'adp--adp###will probably undershoot in###april'
p7
aS'has--has###closed###inaugural whole structure securitisation of part of non-core optimum residential mortgages portfolio'
p8
aS'yum--yum###is###not an activist play'
p9
aS'has--has###closed inaugural whole structure securitisation of part of non-core optimum residential mortgages portfolio through###issuance of notes'
p10
aS'fox--fox###posted###a 1.2 percent rise helped by growth in its cable network business and the box office success of " taken 3" and " kingsman : the secret service'
p11
aS'ea--ea###reported###better-than-expected results'
p12
aS'fox--fox###broadcast###the super bowl'
p13
atRp14
.c__builtin__
set
p1
((lp2
S'metlife--u.s. life insurer metlife profit###jumps###64 pct'
p3
aS'activision blizzard--activision blizzard###reported adjusted revenue of $ 703 million beating###the average analyst estimate of $ 655.4 million'
p4
aS'chesapeake energy--may 6 devon energy corp and chesapeake energy corp###said on###wednesday'
p5
aS"western union--western union 's stock###rose as much as 9 percent on###wednesday"
p6
aS'nasdaq--the nasdaq composite###declined 16.32 points , or 0.33 percent , to###4,923.01'
p7
aS'metlife--metlife inc###reported###a better-than-expected quarterly profit'
p8
aS'activision blizzard--activision blizzard###bought###redoctane inc'
p9
aS'target--it###had slashed###its 2015 job creation target'
p10
aS'target--drugs###remain the standard of care from###the genentech unit of roche holding ag target'
p11
aS'nasdaq--declining issues###fell on###the nasdaq'
p12
aS'coca-cola--a flavored organic tea range###be made by###the coca-cola co'
p13
aS'tripadvisor--tripadvisor###gets###fees'
p14
aS'e*trade financial--may 6 e*trade financial corp###will recognize###an income tax benefit of about $ 225 million'
p15
aS'boeing--the u.s. government###to approve###the sale of advanced boeing fighter jets'
p16
aS'western union--moneygram###gave up some of its earlier gains after###western union'
p17
aS'activision blizzard--activision blizzard###be maker of###videogame'
p18
aS'citigroup--citigroup global markets###was###financial adviser'
p19
aS'u.s. dollar--the u.s. dollar###stayed on###the backfoot dogged by trade deficit concerns'
p20
aS"walt disney--walt disney co 's espn###went so far as to sue###verizon"
p21
aS'concho resources--concho resources inc###also raised###their production outlooks'
p22
aS'citigroup--bank of america merrill lynch and citigroup###have launched the deal at###165bp'
p23
aS'jpmorgan chase--u.s. bank jpmorgan chase###said on###wednesday'
p24
aS"bank of america--bank of america 's new policy###arose from###pressure"
p25
aS'nasdaq--the nasdaq composite###declined###5.62 points , or 0.27 percent'
p26
aS'prudential financial--life insurer prudential financial inc###reported###a 64 percent jump helped by an increase in income from its u.s. retirement solutions and investment management unit'
p27
aS'e*trade financial--may 6 e*trade financial corp###will recognize an income tax benefit of about $ 225 million following###a settlement'
p28
aS"general electric--general electric 's ceo jeff immelt###met europe 's antitrust chief margrethe vestager to push for###unconditional eu approval"
p29
aS'nasdaq--the nasdaq composite###dropped###19.68 points , or 0.4 percent'
p30
aS"progressive--the progressive conservatives###be beat in###a crushing win that ended the center-right party 's 44-year hold on power in the western canadian province"
p31
aS'motorola solutions--motorola solutions###said in###february'
p32
aS'activision blizzard--activision blizzard###be maker for###game'
p33
aS'merck--baygn.de###bought###the over-the-counter business of merck'
p34
aS'activision blizzard--videogame maker activision blizzard inc###raised###its full-year profit and revenue forecasts'
p35
aS'morgan stanley--ian stannard###be head of european fx strategy at###morgan stanley'
p36
aS'amazon.com--groupon###has been struggling to rev up###sales and profit)[enabler=as it battles stiff competition from smaller companies as well as online giants such as amazon.com inc ( amzn.o '
p37
aS'apple--apple###bought beats in###last year'
p38
aS'apple--apple inc###move to line up deals with###record labels'
p39
aS'apple--apple###announced###an $ 8 billion , seven-part deal to help fund dividends and share buybacks'
p40
aS"target--the fiscal deficit###reversed a falling trend rising in###2013 and well above the government 's 5.2 percent target"
p41
aS'southwest airlines--southwest airlines###reaches###tentative contract agreement'
p42
aS"apple--apple 's beats music###deals under###u.s. scrutiny"
p43
aS'motorola solutions--motorola solutions###failed to find###a buyer'
p44
aS'motorola solutions--motorola solutions###said in###wednesday'
p45
aS'apple--u.s. jobs data###weighed down by###a global slide that is pushing yields to 2015 peaks and competing corporate bond sales by apple inc and others)[enabler=by michael connor new york , may 6 ( reuters '
p46
aS'mead johnson nutrition--leemputte###joins from###mead johnson nutrition co'
p47
aS'u.s. dollar--the u.s. dollar###was less lucky as###an unexpectedly sharp widening'
p48
aS'motorola solutions--motorola solutions inc###reported###a better-than-expected quarterly profit helped by strong demand in north america and lower operating expenses'
p49
aS'gap--forex-big u.s. trade gap###weighs on###dollar'
p50
aS'bank of america--may 6 bank of america###announced in###wednesday'
p51
aS'apple--apple###bought###beats'
p52
aS'citigroup--citigroup###then sold###the retirement and insurance services unit'
p53
aS"activision blizzard--videogame maker activision blizzard 's quarterly revenue###rises###15 pct"
p54
aS'metlife--metlife inc###reported###a 64 percent jump helped by investment and derivative gains'
p55
aS'american international--the third insurer###to be designated after###american international group inc'
p56
aS"western union--the world 's largest money transfer company###said###western union co"
p57
aS'activision blizzard--videogame maker activision blizzard inc###reported###better-than-expected quarterly results helped by growth in its high-margin digital business'
p58
aS'tripadvisor--tripadvisor###earned###54 cents'
p59
aS'reynolds american--several brands###to be buy from###reynolds american and lorillard'
p60
aS"apple--apple 's beats music###deals under###us scrutiny"
p61
aS"apple--apple inc 's move###is under###u.s. antitrust scrutiny"
p62
aS'apple--treasuries###were also by###rated apple and anglo-dutch oil giant shell'
p63
aS"target--the fiscal deficit###reversed a falling trend rising above###2013 and well above the government 's 5.2 percent target"
p64
aS'nasdaq--the nasdaq composite###lost 9.31 points , or 0.45 percent , to###2,080.15'
p65
aS'bank of america--andrew plepler###be head of corporate social responsibility at###bank of america'
p66
aS"nasdaq--the company 's shares###closed on###the nasdaq"
p67
aS'activision blizzard--activision blizzard###be maker for###videogame'
p68
aS'nasdaq--the nasdaq composite###decreased 16.53 points , or 0.33 percent , to###4,922.80'
p69
aS'nasdaq--the nasdaq composite .ixic###dropped###19.68 points , or 0.4 percent'
p70
aS'lockheed martin--the company###is competing against###lockheed martin corp'
p71
aS'nasdaq--the nasdaq biotechnology index etf###fell 5.8 percent after###july 14'
p72
aS'western union--western union co###be said on###wednesday'
p73
aS'goldman sachs--jonathan penkin###be co-head of financing group for###goldman sachs'
p74
aS'boeing--a formal letter stating its firm###plans to buy###newer-model boeing jets'
p75
aS'apple--apple###was the biggest drag on###the s&p 500'
p76
aS'pfizer--pfizer inc###had made###a preliminary offer'
p77
aS'apple--tech stocks###be led by###apple and microsoft'
p78
aS'metlife--life insurer metlife profit###beats###estimates'
p79
aS'southern--the southern port city of aden###to be flee by###a boat that was struck by houthi shells , rescue workers and witnesses'
p80
aS"anadarko petroleum--anadarko petroleum corp 's ceo###expressed###some concerns"
p81
aS'bank of america--bank of america###plays###a continued role'
p82
aS'boeing--boeing###is also vying for###orders'
p83
aS'motorola solutions--motorola solutions shares###have fallen###about 12.7 percent'
p84
aS'activision blizzard--activision blizzard###reported adjusted revenue of $ 703 million in###the first quarter'
p85
aS'citigroup--citigroup###then sold the retirement and insurance services unit to###affiliates of j.c.'
p86
aS'u.s. dollar--the u.s. dollar###hit###its lowest level'
p87
aS"progressive--the unpr###is###a leftist party which supports scrapping romania 's 16 percent flat income tax rate in favour of a progressive system"
p88
aS'apple--treasuries###were also under###pressure from big sales of bonds by apple inc and oil major royal dutch shell'
p89
aS'apple--apple and the ftc###did not immediately respond to###requests seeking comment outside regular business hours'
p90
aS'nasdaq--the nasdaq composite###lost###9.28 points , or 0.44 percent'
p91
aS'whole foods market--whole foods market inc###said###same-store sales growth'
p92
aS'nasdaq--the nasdaq composite###dropped###39.24 points , or 0.79 percent'
p93
aS"bank of america--bank of america 's new policy###to limit###credit exposure"
p94
aS'nasdaq--1,039###fell on###the nasdaq'
p95
aS'apple--treasuries###compete with###$ 18 bln of apple'
p96
aS'perrigo--itself###to buy###ireland-based perrigo'
p97
aS"target--this year 's job creation target###will be in###danger"
p98
aS'target--mexico###was on###target'
p99
aS'target--genetic profiling###is standard in###melanoma and some lung cancers , where drugs such as zelboraf from the genentech unit of roche holding ag target the driver mutation , in most common tumors traditional chemotherapy and radiation remain the standard of care'
p100
aS"u.s. dollar--the u.s. dollar###weakened on###data that showed private employers added 169,000 jobs in april , the fewest since january 2014 and far below economists ' forecast for 200,000"
p101
aS'devon energy--may 6 devon energy corp and chesapeake energy corp###said on###wednesday'
p102
aS'activision blizzard--activision blizzard inc###be maker for###videogame'
p103
aS'prudential financial--the company###is###the third insurer to be designated as a systemically important financial institution after american international group inc ( aig.n ) and prudential financial inc ( pru.n )'
p104
aS'nasdaq--nasdaq 0.8 pct###added to###losses'
p105
aS'amazon.com--groupon###to rev up###sales and profit)[enabler=as it battles stiff competition from smaller companies as well as online giants such as amazon.com inc ( amzn.o '
p106
aS'motorola solutions--motorola solutions###get###about 60 percent of its revenue'
p107
aS"target--the goal holding a week 's worth of cash###would require###the government to target holding between $ 200 billion and $ 225 billion daily"
p108
aS'apple--apple###gets into###the car business'
p109
aS'devon energy--devon energy corp and chesapeake energy corp###said on###wednesday'
p110
aS"southern--jason pigott###be executive vice president for###chesapeake 's southern division"
p111
aS'jpmorgan chase--u.s. bank jpmorgan chase###has been placed as###part of a probe'
p112
aS'nasdaq--the nasdaq composite###lost 17.02 points , or 0.81 percent , to###2,072.44'
p113
aS'nasdaq--the nasdaq biotechnology index etf###fell 5.8 percent in###the three days'
p114
aS'concho resources--concho resources inc###also raised their production outlooks in###this week'
p115
aS'u.s. dollar--the u.s. dollar###slumped after###weak american economic data'
p116
aS'nucor--nucor and ssab enterprises###launched###a separate action complaining chinese producers were circumventing import duties on steel plate'
p117
aS'citigroup--ubs.n ) and citigroup###has been delayed by###two weeks'
p118
aS'waters--u.s. companies###is oil in###its gulf of mexico waters'
p119
aS'motorola solutions--motorola solutions inc###be a maker of###walkie-talkies and radio systems'
p120
aS'progressive--the election###sparked###the immediate resignation of progressive conservative premier jim prentice'
p121
aS'apple--treasuries###were also under###pressure from big sales of bonds by technology giant apple and oil major royal dutch shell'
p122
aS'u.s. dollar--the u.s. dollar###hit its lowest level since###late february'
p123
aS'nasdaq--the nasdaq biotechnology index etf###fell###5.8 percent'
p124
aS'target--its earnings target###would be reach in###2015'
p125
aS'target--the fund###said###the 2015 deficit target of 4.4 percent of gross domestic production'
p126
aS'bank of america--separately , bank of america shareholders###rejected###a resolution requiring the bank to report on its impact on climate change from financing fossil fuel projects'
p127
aS'citigroup--citigroup global markets###was financial adviser to###crestwood and andrews kurth llp and simpson thacher & bartlett llp'
p128
aS'nasdaq--shares of caesars###were on###the nasdaq'
p129
aS'marathon oil--marathon oil posts###be sticks to###production outlook'
p130
aS'walt disney--walt disney co###to sue###verizon'
p131
aS'apple--u.s. treasury debt prices###fell on###the european bond sell-off and apple inc'
p132
aS'microsoft--microsoft and its skype phone service###came out in###a clash of corporate titans'
p133
aS'bank of america--bank of america merrill lynch and citigroup###have launched###the deal'
p134
aS'citigroup--bank of america merrill lynch and citigroup###have launched###the deal'
p135
aS'whole foods market--may 6 whole foods market inc###tumbled###than 9 percent'
p136
aS'activision blizzard--activision blizzard###raises forecast as###digital sales'
p137
aS'apple--apple inc###move to line up###deals'
p138
aS'u.s. dollar--crude prices###surged to###2015 highs and the u.s. dollar'
p139
aS"perrigo--ireland-based perrigo###rebuffed mylan 's $ 34 billion bid in###turn"
p140
aS'whole foods market--whole foods market inc###said by###lisa baertlein los angeles may 6'
p141
aS'activision blizzard--videogame maker activision blizzard inc###reported###a 15 percent rise helped by robust sales of its first person shooter game " call of duty : advanced warfare "'
p142
aS'motorola solutions--motorola solutions###to find###a buyer'
p143
aS'tripadvisor--website operator tripadvisor inc###reported###a 29.2 percent rise'
p144
aS"u.s. dollar--the u.s. dollar 's fall###also supported###oil and other commodity prices"
p145
aS'apple--treasuries###compete with###apple'
p146
aS'nasdaq--the nasdaq composite###was recording###26 new highs and 69 new lows'
p147
aS'pioneer natural resources--pioneer natural resources co###told reuters in###last month'
p148
aS'chesapeake energy--devon energy corp and chesapeake energy corp###said on###wednesday'
p149
aS'nasdaq--the nasdaq composite###dropped 19.68 points , or 0.4 percent , to###4,919.64'
p150
aS'bank of america--bank of america###announced in###wednesday'
p151
aS'lockheed martin--( thaad ) system###be built by###lockheed martin corp.'
p152
aS'chipotle mexican grill--chipotle mexican grill inc and other quick-service chains###be rivals of###mcdonald'
p153
aS'western union--21.41 percent###be ended up after###western union'
p154
aS'marathon oil--may 6 marathon oil corp.###reported###a first-quarter loss'
p155
aS'occidental petroleum--occidental petroleum###boosts###2015 production outlook'
p156
aS"target--inflation###to remain below###the fed 's 2 percent annual target"
p157
aS'american international--the company###is###the third insurer to be designated as a systemically important financial institution after american international group inc ( aig.n ) and prudential financial inc ( pru.n )'
p158
aS'southwest airlines--southwest airlines co###said in###tuesday'
p159
aS'transocean--transocean ltd###reported###a first-quarter loss'
p160
aS'progressive--the iconic fast-food chain###be transform into###a "modern , progressive burger company'
p161
aS'pioneer natural resources--pioneer natural resources co###told###reuters'
p162
aS'microsoft--tech stocks###be led by###apple and microsoft'
p163
aS'delta air lines--delta air lines###is the sternest critic of###gulf carriers'
p164
aS'prudential financial--prudential financial quarterly profit###rises###64 pct'
p165
aS'activision blizzard--activision blizzard inc###be maker of###videogame'
p166
aS'target--the poll###showed below###the annual government target of 3 percent'
p167
aS'target--the insurer###would reach###its earnings target'
p168
aS'apple--nobody###wants to upset###the apple cart'
p169
aS'apple--apple###was the biggest drag on###wednesday'
p170
aS'walt disney--walt disney co###went so far as to sue###verizon'
p171
aS'electronic arts--rival electronic arts inc###has already made###smartphone versions of its top-selling games'
p172
aS'southern--the entire southern port city###had come under###houthi control'
p173
aS"international business machines--fourteen u.s. and canadian cancer institutes###will use###international business machines corp 's watson computer system"
p174
aS'apple--apple###was###the biggest drag'
p175
aS'bank of america--bank of america###has made strides since###2011'
p176
aS'activision blizzard--game maker activision blizzard###raises forecast as###digital sales'
p177
aS"western union--western union 's stock###rose###as much as 9 percent"
p178
aS'western union--western union###gained###4.29 percent'
p179
aS'metlife--metlife###earned $ 1.44 per share on###an operating basis'
p180
aS'southern--he###filed in###the southern district of ohio'
p181
aS'prudential financial--prudential financial quarterly profit###rises###64 percent'
p182
aS'southern--the southern poverty law center###that has described as###a hate group'
p183
aS'raytheon--the patriot system###be built by###raytheon co and the terminal high-altitude area defense'
p184
aS'bank of america--bank of america###has made###strides'
p185
aS'microsoft--the skype service###be owns by###u.s. tech giant microsoft'
p186
aS'motorola solutions--motorola solutions###said on###wednesday'
p187
aS'occidental petroleum--occidental petroleum corp###boosted###its 2015 production forecast'
p188
aS'motorola solutions--motorola solutions###said###february'
p189
aS'u.s. dollar--the u.s. dollar###will soon resume###its rally'
p190
aS'target--the driver mutation###remain the standard of care from###the genentech unit of roche holding ag target'
p191
aS"nasdaq--the company 's shares###closed in###the nasdaq"
p192
aS'nasdaq--the nasdaq composite###dropped 39.24 points , or 0.79 percent , to###4,900.09'
p193
aS'marathon oil--marathon oil corp###reported###a first-quarter loss'
p194
aS'u.s. dollar--the u.s. dollar###was###less lucky'
p195
aS'nasdaq--the nasdaq composite .ixic###dropped 19.68 points , or 0.4 percent , to###4,919.64'
p196
aS'target--wendy which owned about 943 of the near 6,500 outlets###announced plans to build 80 new restaurants in 2015###the highest annual target'
p197
aS'metlife--metlife###has long had###a substantial derivatives program designed to smooth out risks stemming from changes to interest rates , currency exchange rates and equities'
p198
aS'western union--moneygram###ended up 21.41 percent after###western union'
p199
aS'nasdaq--the nasdaq composite###lost 9.28 points , or 0.44 percent , to###2,080.18'
p200
aS'nasdaq--the nasdaq composite###recorded###29 new highs and 73 new lows'
p201
aS'nasdaq--the nasdaq composite###declined 5.62 points , or 0.27 percent , to###2,083.84'
p202
aS'activision blizzard--activision blizzard###be also known for###its " world of warcraft" , "skylanders'
p203
aS'xl--keystone xl###be project of###transcanada corp'
p204
aS'boeing--boeing###assembles###the jets'
p205
aS'morgan stanley--ted wieseman###be an economist at###morgan stanley'
p206
aS'motorola solutions--motorola solutions###forecast###a 3-5 percent fall'
p207
aS'motorola solutions--lower costs###help###motorola solutions beat profit estimates'
p208
aS'activision blizzard--activision blizzard###reported###adjusted revenue of $ 703 million'
p209
aS'general electric--its power equipment business###be selling to###general electric'
p210
aS'target--a 4 percent government growth target###remained###attainable'
p211
aS'goldman sachs--goldman sachs###advised###synageva'
p212
aS'nasdaq--the nasdaq composite###decreased###16.53 points , or 0.33 percent'
p213
aS'u.s. dollar--the u.s. dollar###slumped against###major currencies'
p214
aS'bank of america--bank of america merrill lynch and citigroup###have launched the deal at###165bp'
p215
aS'progressive--the left-wing ndp###beat###the progressive conservatives'
p216
aS'nasdaq--nasdaq 0.8 pct###added by###noel randewich may 6'
p217
aS'western union--western union###states in###view of the high level of market activity'
p218
aS'verizon communications--verizon communications inc###is###the latest distributor to challenge the traditional pay-tv universe when it launched in april a new slimmed-down package of channels with the option'
p219
aS'hormel foods--jennie-o turkey store###be unit of###hormel foods corp'
p220
aS'apple--tech stocks###weigh###apple'
p221
aS'jpmorgan chase--u.s. bank jpmorgan chase###has been placed under###formal investigation'
p222
aS"metlife--metlife 's shares###had lost###nearly 6 percent"
p223
aS'activision blizzard--activision blizzard###be maker of###game'
p224
aS'global payments--scott smith###be senior market analyst at###cambridge global payments'
p225
aS'bank of america--we###have developed###a coal policy that will ensure that bank of america plays a continued role in promoting the responsible use of coal and other energy sources , while balancing the risks and opportunities to our shareholders and the communities'
p226
aS'u.s. dollar--the u.s. dollar###hit its lowest level against###the euro'
p227
aS'boeing--caroline hutcheson###be spokeswoman of###boeing'
p228
aS'nasdaq--the nasdaq composite###lost###9.31 points , or 0.45 percent'
p229
aS'nasdaq--the nasdaq composite###declined###16.32 points , or 0.33 percent'
p230
aS'activision blizzard--activision blizzard###raises forecast in###update 2-game maker'
p231
aS'nucor--nucor corp , ssab enterprises llc and arcelor mittal usa###said###a flood of cheap cut-to-length ( ctl ) carbon steel plate was hurting the local industry'
p232
aS"motorola solutions--motorola solutions shares###have fallen about 12.7 percent through###tuesday 's close"
p233
aS'waters--billions of barrels of oil###were beneath###its gulf of mexico waters'
p234
aS'microsoft--microsoft and its skype phone service###came out on###the losing side of an eu court battle'
p235
aS'whole foods market--may 6 whole foods market inc###tumbled more than 9 percent in###after-hours trading'
p236
aS'apple--apple###was declining for###its third straight session'
p237
aS'pfizer--pfizer###planned###$ 16.7 billion purchase of hospira'
p238
aS'nasdaq--nasdaq 0.8 pct###added adding to###anxiety'
p239
atRp240
.