(lp1
c__builtin__
set
p2
((lp3
S"waters--its territorial waters###be violating off###the peninsula 's west coast"
p4
atRp5
ag2
((lp6
S'ford motor--8 the venezuela division of ford motor co###may will begin selling vehicles in###dollars'
p7
aS'ford motor--8 the venezuela division of ford motor co###may will begin selling vehicles in###the coming months'
p8
atRp9
ag2
((lp10
S'time warner--a lawsuit###be brought against###the time warner inc subsidiary'
p11
atRp12
ag2
((lp13
S'time warner--a lawsuit###be brought against###the time warner inc subsidiary'
p14
atRp15
ag2
((lp16
S'time warner--a lawsuit###be brought against###the time warner inc subsidiary'
p17
atRp18
ag2
((lp19
S'monsanto--syngenta###rejects###$ 45 billion monsanto takeover offer'
p20
aS'monsanto--a $ 45 billion takeover offer###be rejected from###monsanto'
p21
aS'monsanto--agrochemicals firm syngenta###rejected a $ 45 billion takeover offer from###monsanto'
p22
atRp23
ag2
((lp24
S"nike--oregon president barack obama co-opting nike inc 's famous slogan###told democrats on###friday"
p25
aS"nike--oregon president barack obama co-opting nike inc 's famous slogan###told jobs on###friday"
p26
aS"nike--oregon president barack obama co-opting nike inc 's famous slogan###told jobs over###10 years"
p27
aS"nike--oregon president barack obama co-opting nike inc 's famous slogan###told democrats over###10 years"
p28
aS"nike--oregon president barack obama co-opting nike inc 's famous slogan###told democrats###jobs"
p29
atRp30
ag2
((lp31
S'apple--swedish telecom equipment maker ericsson###be the netherlands against###apple'
p32
atRp33
ag2
((lp34
S'apple--swedish telecom equipment maker ericsson###be the netherlands against###apple'
p35
atRp36
ag2
((lp37
S"noble--noble group re###admitted to###platts ' oil pricing process"
p38
atRp39
ag2
((lp40
S'mastercard--target mastercard settlement###moves ahead despite###u .s'
p41
atRp42
ag2
((lp43
S"nike--sports shoe maker nike 's chief executive mark parker###said on###friday"
p44
atRp45
ag2
((lp46
S'mastercard--target or mastercard###had made###misleading or coercive statements'
p47
aS"mastercard--target mastercard settlement###moves ahead despite###judge 's doubts"
p48
atRp49
ag2
((lp50
S'general electric--8 general electric co###may has won###a five-year contract valued at up to $ 2 billion to supply helicopter engines to the government of taiwan and support a number of u .s . military services'
p51
atRp52
ag2
((lp53
S'monsanto--monsanto###to press ahead with###syngenta takeover plan'
p54
aS'monsanto--monsanto###set to press ahead with###syngenta takeover plan'
p55
atRp56
ag2
((lp57
S'baker hughes--permian basin###sees first rig increase since oil rout###baker hughes'
p58
atRp59
ag2
((lp60
S'mastercard--target mastercard settlement###moves ahead despite###u .s'
p61
atRp62
ag2
((lp63
S'visa--visa inc###is in###preliminary talks to buy former subsidiary visa europe ltd'
p64
aS'visa--visa inc###is in###a deal'
p65
atRp66
ag2
((lp67
S'monsanto--monsanto###set to press ahead with###syngenta takeover plan source'
p68
aS'monsanto--monsanto###to press ahead with###syngenta takeover plan source'
p69
atRp70
ag2
((lp71
S'salesforce--microsoft###has###no plans to pursue salesforce sources'
p72
aS'microsoft--microsoft###has###no plans to pursue salesforce sources'
p73
atRp74
ag2
((lp75
S'visa--visa inc###is in###preliminary talks to buy former subsidiary visa europe ltd'
p76
aS'visa--visa inc###is in###a deal'
p77
atRp78
ag2
((lp79
S'starbucks--starbucks###said of###it'
p80
atRp81
a.