c__builtin__
set
p1
((ltRp2
.c__builtin__
set
p1
((lp2
S'waters--the overcrowded fishing vessel bouncing between the waters of two countries###determined not to take in###them'
p3
aS'target--target###to give###less priority'
p4
aS'home depot--home depot###will report###results'
p5
aS'u.s. dollar--the first chinese property developer to fail to pay a coupon on its u.s. dollar bonds and internet company cloud live tech group###to repay nearly $ 40 million to###bondholders'
p6
aS'prudential financial--quincy krosby###be market strategist at###prudential financial'
p7
aS'level 3 communications--level 3 communications shares###be set for###gains-barron'
p8
aS'level 3 communications--level 3 communications inc###could rise###20 percent'
p9
aS'southern--university graduates###have taken in###southern towns'
p10
aS'u.s. dollar--the first chinese property developer to fail to pay a coupon on its u.s. dollar bonds and internet company cloud live tech group###failed to repay nearly $ 40 million to###bondholders'
p11
aS'level 3 communications--level 3 communications inc###could rise 20 percent in###the next year'
p12
aS'target--target###to give less priority to top###packaged food suppliers'
p13
aS'target--target###to give less priority to top###packaged food suppliers-wsj'
p14
aS'u.s. dollar--kaisa group###also became###the first chinese property developer to fail to pay a coupon on its u.s. dollar bonds and internet company cloud live tech group'
p15
aS'target--target representatives###could not immediately be reached for###comment'
p16
aS'waters--the overcrowded fishing vessel###bouncing between###the waters of two countries'
p17
atRp18
.