(lp1
c__builtin__
set
p2
((lp3
S'phillips 66--phillips 66 shares###poised to rise###another 15 pct barron'
p4
aS'phillips 66--phillips 66 shares###could rise###another 15 percent'
p5
aS"phillips 66--phillips 66 shares###could rise another 15 percent in###the coming months based on strong earnings and growth potential at the oil refiner , barron 's financial newspaper said in its latest issue , citing analysts"
p6
atRp7
ag2
((lp8
S'honeywell international--10 honeywell international inc shares###may could rise in###the longer-term'
p9
aS'honeywell international--10 honeywell international inc shares###may could rise by###about 20 percent'
p10
aS'honeywell international--10 honeywell international inc shares###may could rise in###the next year and close'
p11
atRp12
a.