(lp1
c__builtin__
set
p2
((lp3
S'monsanto--monsanto###be soy seed use in###crackdown'
p4
aS'monsanto--seeds###be developed by###monsanto co'
p5
atRp6
ag2
((lp7
S"general electric--general electric co 's chief###gave###a faster timeline"
p8
atRp9
ag2
((lp10
S'netapp--netapp results###miss###estimates'
p11
atRp12
ag2
((lp13
S'viacom--viacom###boosts###dividend more than 20 percent'
p14
aS'viacom--viacom###boosts dividend more than 20 percent to###40 cents'
p15
atRp16
ag2
((lp17
S'time warner cable--french telecommunications group altice sa###has held###talks to buy time warner cable inc'
p18
aS'time warner--french telecommunications group altice sa###has held###talks to buy time warner cable inc'
p19
atRp20
ag2
((lp21
S'microsoft--app makers###cool to###microsoft overtures'
p22
aS'apple--it###accept###tweaked apple and android apps'
p23
atRp24
ag2
((lp25
S"salesforce--germany german software company sap 's chief executive###once again ruled out then###any move to acquire salesforce .com"
p26
atRp27
ag2
((lp28
S'conagra foods--unit of conagra foods inc###will pay $ 11.2 million to end a federal probe into###a 2007 recall of peanut butter'
p29
aS'conagra foods--unit of conagra foods inc###will pay $ 11.2 million to end###a federal probe'
p30
aS'conagra foods--unit of conagra foods inc###will pay $ 11.2 million including###the peter pan brand linked to a salmonella outbreak'
p31
atRp32
ag2
((lp33
S'salesforce--20cloud software company salesforce###be the subject of###takeover speculation'
p34
aS'salesforce--20cloud software company salesforce###be the subject of takeover speculation for###the past few weeks'
p35
aS'salesforce--salesforce revenue###jumps###23 pct'
p36
aS'salesforce--20cloud software company salesforce###reported###a 23 percent jump helped by an increase in demand for its web-based sales and marketing software'
p37
atRp38
ag2
((lp39
S'citigroup--20 citigroup inc###may are receiving###regulatory waivers'
p40
atRp41
ag2
((lp42
S'salesforce--salesforce .com inc###raised###its revenue forecast'
p43
atRp44
ag2
((lp45
S'wal-mart stores--wal-mart stores inc###said of###it'
p46
atRp47
ag2
((lp48
S'yahoo--yahoo inc###regained###most of their losses'
p49
aS'yahoo--yahoo inc###regained most of their losses after###concerns of a possible change'
p50
atRp51
ag2
((lp52
S'yahoo--yahoo shares###fall###tax change'
p53
aS"yahoo--tax regulations###would affect###yahoo 's planned spinoff of its stake"
p54
aS'yahoo--yahoo shares###fall tax change on spinoffs on###worries of possible u .s'
p55
aS"yahoo--a possible change###would affect###yahoo 's planned spinoff of its stake"
p56
atRp57
ag2
((lp58
S'viacom--viacom inc###said###it'
p59
aS'viacom--viacom###raises dividend by###21 pct'
p60
aS'viacom--viacom###raises###dividend'
p61
aS'viacom--viacom###raises dividend to###40 cents'
p62
atRp63
ag2
((lp64
S'at&t--foreign direct investment###rose###telecoms giant at&t'
p65
atRp66
ag2
((lp67
S"hormel foods--hormel foods ' chief executive###cast doubt due to###a devastating outbreak of avian flu"
p68
aS"hormel foods--hormel foods ' chief executive###cast###doubt"
p69
aS"hormel foods--hormel foods ' chief executive###cast doubt on###federal forecasts"
p70
aS"hormel foods--hormel foods ' chief executive###cast doubt for###as much as 4 percent increase"
p71
atRp72
ag2
((lp73
S'cvs health--cvs health corp###is nearing###a deal to buy pharmacy service provider omnicare inc for more than $ 12 billion'
p74
atRp75
a.