c__builtin__
set
p1
((ltRp2
.c__builtin__
set
p1
((lp2
S'target###to give less priority to top###packaged food suppliers'
p3
aS'target###to give less priority to top###packaged food suppliers-wsj'
p4
aS'the overcrowded fishing vessel###bouncing between###the waters of two countries'
p5
aS'level 3 communications inc###could rise 20 percent in###the next year'
p6
aS'target representatives###could not immediately be reached for###comment'
p7
aS'the first chinese property developer to fail to pay a coupon on its u.s. dollar bonds and internet company cloud live tech group###failed to repay nearly $ 40 million to###bondholders'
p8
aS'level 3 communications shares###be set for###gains-barron'
p9
aS'a coupon###to be pay on###its u.s. dollar bonds and internet company cloud live tech group'
p10
aS'university graduates###have taken in###southern towns'
p11
aS'home depot###will report###results'
p12
aS'the overcrowded fishing vessel bouncing between the waters of two countries###determined not to take in###them'
p13
aS'kaisa group###also became###the first chinese property developer to fail to pay a coupon on its u.s. dollar bonds and internet company cloud live tech group'
p14
aS'quincy krosby###be market strategist at###prudential financial'
p15
aS'level 3 communications inc###could rise###20 percent'
p16
aS'retailer target corp###has informed top suppliers of packaged foods , such at kraft foods group inc###healthier foods the wall street journal reported on sunday'
p17
aS'target###to give###less priority'
p18
aS'brian jacobsen###be chief portfolio strategist at###wells fargo funds management'
p19
aS'the first chinese property developer to fail to pay a coupon on its u.s. dollar bonds and internet company cloud live tech group###to repay nearly $ 40 million to###bondholders'
p20
atRp21
.