c__builtin__
set
p1
((lp2
S'gm###generated net income of $ 2.8 billion in###2014'
p3
aS'low###to be six-week after###u.s. durable goods data'
p4
aS'emc###slashed###its full-year revenue and profit forecasts'
p5
aS"ads###to be remove from###tlc 's top-rated reality show"
p6
aS'emc###to strengthen###its cloud services offerings'
p7
aS'emc###to buy###virtustream'
p8
aS'emc###has decided not to spin off###the business'
p9
aS'emc###holds###an 80 percent stake'
p10
aS'gm###generated###net income of $ 2.8 billion'
p11
aS'emc###has been facing###pressure to spin off vmware'
p12
atRp13
.c__builtin__
set
p1
((lp2
S'astrazeneca and amgen###have been sharing development of brodalumab as###a treatment for psoriasis , psoriatic arthritis and axial spondyloarthritis'
p3
aS'the nasdaq composite###was down 62.90 points , 1.24 percent , at###5,026.47'
p4
aS'priceline###invested $ 500 million in###ctrip'
p5
aS'the main factor weighing on prices###is###the significantly appreciating u.s. dollar'
p6
aS"update 1-brazil 's current account gap###widens in###april"
p7
aS"brazil 's external gap###has widened sharply in###recent years"
p8
aS'charter###has offered to buy###time warner cable'
p9
aS"california-based company 's shares###closed on###the nasdaq"
p10
aS"it###was opposed to###halliburton 's decision"
p11
aS'emc corp###be maker of###data storage products'
p12
aS'the nasdaq composite###dropped 64.44 points , or 1.27 percent , to###5,024.93'
p13
aS'morgan stanley###said in###a report'
p14
aS'the nasdaq composite###dropped 56.61 points , or 1.11 percent , to###5,032.75'
p15
aS'amazon.com inc.###be retailer of###internet'
p16
aS'its return###adds to handle after###a gap of five years'
p17
aS'bart wakabayashi###be head of forex at###state street'
p18
aS'that fact combined with its loose peg to the u.s. dollar###is###a big challenge'
p19
aS'may 26 goldman sachs###has named kate richdale as###its new co-heads of investment banking'
p20
aS"the deal###be no material impact on###emc 's 2015 results"
p21
aS'one target of new reforms###could be law enforcement officers of###the state'
p22
aS'time warner cable###rose###6.9 percent'
p23
aS'it###be an it manager at###a subsidiary of coca-cola co'
p24
aS'goldman sachs###be joining from###morgan stanley'
p25
aS'harvests###to be damage from###southern angola'
p26
aS'reynolds american###wins###u.s. antitrust approval'
p27
aS"the move which comes about two years after completing a similar deal with target corp ( tgt.n )###increases###td 's reach"
p28
aS'tom hayes###be a former trader at###ubs and citigroup'
p29
aS'it###agreed to buy###time warner cable'
p30
aS"halliburton 's staff cuts###are part in###nigeria"
p31
aS'goldman sachs###has named andrea vella as###its new co-heads of investment banking'
p32
aS'may 26 brazil###posted a current account deficit of $ 6.901 billion widening from###a gap of $ 5.736 billion in march and in line'
p33
aS'the u.s. supreme court###ruled against###cisco systems inc( csco.o'
p34
aS'morgan stanley###said on###tuesday'
p35
aS'mass retailer wal-mart stores inc###issued guidelines to###its meat'
p36
aS'halliburton co###be provider for###u.s. oilfield services'
p37
aS'morgan stanley###said in###tuesday'
p38
aS'1 to 1.5 percent###could be accept as###a suitable primary surplus target'
p39
aS'goldman sachs###to bundle###debt backing'
p40
aS'the nasdaq composite###dropped###64.44 points , or 1.27 percent'
p41
aS"internet retailer amazon.com inc. 's ( amzn.o ) main german operating unit###paid###just 11.9 million euros"
p42
aS'the value###be assigned to###the gap risk'
p43
aS'progressive central bank interest rate cuts aimed at knocking down the australian dollar and falling labour and mining costs###are adding###fuel'
p44
aS'the bank###has not experienced###any losses attributed to the gap risk on the lss securities as this risk never materialised'
p45
aS"it###will acquire###nordstrom 's u.s. consumer credit card portfolio"
p46
aS'halliburton###is in###conversations'
p47
aS'hormel foods corp###be the maker of###spam lunch meat'
p48
aS'crude prices###fall###than 3 pct ( updates prices , changes dateline from previous london ) by rodrigo campos new york , may 26 the u.s. dollar rallied on tuesday after a string of healthy economic data boosted near-term rate hike prospects'
p49
aS'he###started trading at###citigroup'
p50
aS'express scripts holding co###is###the largest u.s. manager of pharmacy benefit plans'
p51
aS'the nasdaq composite###lost###25.3 points , or 1.19 percent'
p52
aS'once-popular pair trade pitting the u.s. dollar against oil prices###has re-emerged in###recent weeks'
p53
aS'the fed###achieve###its 2 percent inflation target'
p54
aS'the u.s. dollar###strengthened on###the back of heightened investor concern'
p55
aS'apple###was###the biggest drag'
p56
aS'the u.s. dollar###rallied against###a basket of currencies'
p57
aS'may 26 brazil###posted a current account deficit of $ 6.901 billion widening in###a gap of $ 5.736 billion in march and in line'
p58
aS'emc###has been facing###pressure to spin off vmware'
p59
aS'the malampaya consortium###be composed of###shell philippines exploration bv , chevron malampaya llc , pnoc exploration corp and state-owned philippine national oil co'
p60
aS'the telegraph andrew wilson###be the european chief executive of###goldman sachs asset management'
p61
aS'emc###slashed###its full-year revenue and profit forecasts'
p62
aS'tom hayes###has was fired by###u.s. bank citigroup'
p63
aS'the nasdaq composite###recorded###52 new highs and 77 new lows'
p64
aS"the drug 's prospects###now seem badly tarnished with###amgen"
p65
aS'priceline group inc###be operator of###travel websites'
p66
aS'the u.s. dollar###rallied on###tuesday'
p67
aS'private equity firm carlyle###has hired###goldman sachs'
p68
aS'the nasdaq composite###lost 25.3 points , or 1.19 percent , to###2,100.76'
p69
aS'altria group###has###a 47 percent u.s. market share'
p70
aS"time warner cable###rose 7.2 percent below###charter 's cash and stock offer of $ 195.71"
p71
aS'halliburton co###spun off kbr in###2007'
p72
aS'halliburton co###be provider of###u.s. oilfield services'
p73
aS"charter 's time warner cable bid###faces###$ 2 billion regulatory question"
p74
aS'reynolds american inc###won###u.s. antitrust approval'
p75
aS'richdale###was previously head of investment banking services for###goldman sachs'
p76
aS'tiffany###reported###its first fall'
p77
aS'fire###extinguished at###apple site'
p78
aS'any moves to bolster mortgage lending###would go against###central bank efforts to raise borrowing costs to bring inflation back to the center of the official target in late 2016'
p79
aS"enforcement of oracle 's copyright###that could have on###software development"
p80
aS"may 26 internet retailer amazon.com inc. 's main german operating unit###paid just 11.9 million euros ( $ 16 million ) in tax in 2014 despite###the group recording"
p81
aS'goldman sachs###is###financial advisor'
p82
aS'amazon.com inc.###be retailer for###internet'
p83
aS'the u.s. dollar###rallied after###a string of healthy economic data'
p84
aS'googl.o ) and apple ( aapl.o###are now investing in###health'
p85
aS'priceline###invested $ 500 million in###ctrip.com'
p86
aS'neither amgen###would talk###about possible pricing of their new drugs'
p87
aS'it###to buy###time warner cable'
p88
aS'first solar###fell###6.8 percent'
p89
aS"april###said to###the company which provides drilling services to royal dutch shell plc and chevron corp in africa 's top oil producer ,"
p90
aS"brazil 's current account gap###widens in###april"
p91
aS'emc corp###be maker for###data storage products'
p92
aS'citigroup###to be join in###tokyo'
p93
aS'the target###be values by###a deal'
p94
aS'a coca-cola spokesman###said by###email'
p95
aS'bbva , bank of america merrill lynch , citigroup , goldman sachs , hsbc , morgan stanley and scotiabank###to organize###the meetings'
p96
aS"ecopetrol 's target of saving###is part of###an efficiency drive that will seek savings across the company 's operations"
p97
aS'the standard###reported citing###aes philippines managing director neeraj bhat'
p98
aS'any losses###be attributed to###the gap risk'
p99
aS'emc###has decided not to spin off###the business'
p100
aS'the u.s. dollar###extended###gains'
p101
aS'general mills inc , payless shoesource inc and choice hotels international inc###said in###statements'
p102
aS'it###pursues###a structural savings target of $ 1 billion'
p103
aS'the central bank###make good on###its promises to slash inflation to the 4.5 percent center of the official target range by late 2016'
p104
aS'the nasdaq composite###was recording###47 new highs and 75 new lows'
p105
aS'( amzn.o###be ) main german operating unit of###internet retailer amazon.com inc.'
p106
aS'a similar deal###be completing with###target corp'
p107
aS"cox 's family owners###may be###not be interested in selling , while heavily indebted cablevision faces considerable competition from verizon communications ' fibre network in new york , new jersey and connecticut and therefore is less profitable"
p108
aS'gap risk###is###the risk'
p109
aS'goldman sachs###to be ramp up drilling at###current price'
p110
aS"update 1-brazil 's current account gap###widens to###$ 6.9 bln"
p111
aS'time warner cable###rose###7.2 percent'
p112
aS"altice 's ambitions###undimmed after###time warner cable setback"
p113
aS'the u.s. dollar###rallied to###a one-month high'
p114
aS'the case###is mayimba music inc for###the southern district of new york'
p115
aS"goldman sachs###is building a new 111,500 square meter european headquarters in###london 's farringdon business hub"
p116
aS'goldman sachs###is financial advisor to###applegate and ballard spahr llp and fried frank'
p117
aS'citigroup###be joined in###tokyo'
p118
aS'reynolds american###wins###antitrust approval to buy rival lorillard'
p119
aS'time warner cable chief executive rob marcus###said in###an interview'
p120
aS'retailers walgreen co and payless shoesource inc , and hotel chain group choice hotels international inc###followed###the lead of general mills inc'
p121
aS'emc###to buy###virtustream'
p122
aS'inflation###to bring back to be###the target'
p123
aS'the central bank###will remain###vigilant to bring inflation back to the target'
p124
aS"john malone 's charter communications inc###struck a $ 56 billion deal to buy###time warner cable inc"
p125
aS'charter###agrees to buy###time warner cable'
p126
aS'citigroup and jp morgan###are acting as###global coordinators'
p127
aS'the u.s. dollar###rallied after###a barrage of economic data'
p128
aS'the nasdaq composite###dropped 67.90 points , or 1.33 percent , to###5,021.46'
p129
aS'may 26 reynolds american inc###won###u.s. antitrust approval'
p130
aS'goldman sachs group inc###has appointed stephanie cohen as###global head of financial sponsor m&a'
p131
aS'time warner cable###killed###a proposed takeover'
p132
aS'oracle###won###a federal appeals court ruling that allows it to copyright parts of java'
p133
aS'progressive central bank interest rate cuts aimed at knocking down the australian dollar and falling labour and mining costs###are adding fuel to###the frenzy'
p134
aS'the company###provides drilling services to###royal dutch shell plc and chevron corp'
p135
aS"time warner cable 's insistence###reflects###lingering worries"
p136
aS'apple###was the biggest drag on###all three major indexes'
p137
aS'emc###to strengthen###its cloud services offerings'
p138
aS'progressive central bank interest rate cuts aimed at knocking down the australian dollar and falling labor and mining costs###are adding fuel to###the frenzy'
p139
aS'norihiro fujito###be a senior investment strategist at###mitsubishi ufj morgan stanley securities'
p140
aS"ecopetrol 's target of saving###is###part of an efficiency drive"
p141
aS'the nasdaq composite .ixic###dropped 56.61 points , or 1.11 percent , to###5,032.75'
p142
aS'express scripts holding co###successfully pressed for###price reductions'
p143
aS'deutsche bank###eventually stopped adjusting altogether for###gap risk'
p144
aS"inflation###be brought back permanently to###the ecb 's target level of"
p145
aS'amgen###has brought against###sanofi and regeneron'
p146
aS"amgen 's high-dose monthly injection###could be seen because of###its higher potency"
p147
aS'reuters###has shut down###the local operations of u.s. oilfield services provider halliburton co'
p148
aS'philippines###be the local unit of###aes corp'
p149
aS"time warner cable###rose 6.9 percent below###charter 's cash and stock offer of $ 195.71"
p150
aS'goldman sachs###be joining in###march 2013'
p151
aS'mass retailer wal-mart stores inc###issued guidelines in###last friday'
p152
aS'the nasdaq composite .ixic###dropped###56.61 points , or 1.11 percent'
p153
aS'inflation###to slash to be###the 4.5 percent center of the official target range'
p154
aS'inflation###be bringing back to###the center of its target range'
p155
aS'amgen###has brought for###alleged patent infringement'
p156
aS'the canadian dollar###finished against###the u.s. dollar'
p157
aS'fashion and accessories company michael kors holdings###could report###lower-than-expected fourth-quarter profit and sales'
p158
aS'mario alberto huertas###has appointed###goldman sachs'
p159
aS'sanofi/regeneron and amgen###are conducting larger trials to confirm###the benefits of pcsk9 drugs'
p160
aS'nordstrom###will receive###a large slice of net revenue'
p161
aS"ecopetrol 's target of saving###is part of an efficiency drive through###2020"
p162
aS'the government###can consistently meet###its target of 3 percent nominal gdp growth'
p163
aS'investors###to be drive away from riskier emerging market currencies towards###the safe-have u.s. dollar'
p164
aS'barrick###appears to meet###its target'
p165
aS'halliburton###is to resolve###the pending issues'
p166
aS'653###fell on###the nasdaq'
p167
aS'the u.s. dollar###then is###likely'
p168
aS'the u.s. dollar###be extended session gains on###data that showed u.s. business investment spending plans'
p169
aS'goldman sachs group inc###has appointed###stephanie cohen'
p170
aS'nordstrom###be a large slice of###net revenue generated by the credit card accounts'
p171
aS'harvests###to be damage across###southern africa'
p172
aS'goldman sachs###has named kate richdale as###its new co-heads of investment banking'
p173
aS'the european creditors###could accept 1 to 1.5 percent as###a suitable primary surplus target'
p174
aS'astrazeneca and amgen###have been sharing development of brodalumab since###2012'
p175
aS'the nasdaq composite###dropped###56.61 points , or 1.11 percent'
p176
aS'warehouse club operator costco wholesale corp###to report###third-quarter sales'
p177
aS'may 26 goldman sachs###has named andrea vella as###its new co-heads of investment banking'
p178
aS'time warner cable chief executive rob marcus###said###the company'
p179
aS'united launch alliance###be held by###a joint venture of lockheed martin corp'
p180
aS'goldman sachs###is looking to bundle###debt backing'
p181
aS"it###will acquire###nordstrom 's ( jwn.n ) u.s. consumer credit card portfolio"
p182
aS'priceline###invested $ 500 million in###2014'
p183
aS'bangladesh coca-cola unit###be arrested as###islamic state'
p184
aS"brazil 's current account gap###widens to###$ 6.9 bln"
p185
aS'jpmorgan chase as well as mega-retailers target and home depot###have###all suffered cyber attacks'
p186
aS'united launch alliance###be a joint venture of###lockheed martin corp and boeing co'
p187
aS'morgan stanley###said###a report'
p188
aS'priceline group inc###be operator for###travel websites'
p189
aS'goldman sachs###has named###andrea vella and kate richdale'
p190
aS'convertible bonds###will be issue to###priceline'
p191
aS'ctrip###will issue convertible bonds to###priceline'
p192
aS'astrazeneca and amgen###have been sharing###development of brodalumab'
p193
aS"the u.s. dollar index###rallied as###greece 's financial crisis and signs of increasing opposition to austerity in spain pressured the euro"
p194
aS'the u.s. dollar###to provide###a useful indicator'
p195
aS'a blaze###erupted at###an apple inc facility'
p196
aS'consumer prices###to guide up to be###its 2 percent inflation target'
p197
aS'brian jacobsen###be chief portfolio strategist at###wells fargo funds management'
p198
aS'mass retailer wal-mart stores inc###issued###guidelines'
p199
aS'progressive central bank interest rate cuts aimed at knocking down the australian dollar and falling labor and mining costs###are adding###fuel'
p200
aS'declining issues###fell on###the nasdaq'
p201
aS'bnp paribas , bank of america merrill lynch , citigroup , deutsche bank , morgan stanley and santander gbm###to schedule###a series of fixed-income investor meetings'
p202
aS"the u.s. dollar###strengthened over###greece 's debt crisis and the outlook"
p203
aS'sap se and oracle corp###said###net loss widened by 3.6 percent'
p204
aS'the union###accused###halliburton'
p205
aS"goldman sachs###is looking to bundle debt backing three of colombia 's 4g highway projects and sell it as###an up to us$ 500m 144a bond"
p206
aS'lighthouses###be build in###disputed waters'
p207
aS"may 26 internet retailer amazon.com inc. 's main german operating unit###paid###just 11.9 million euros"
p208
aS'halliburton co###was also named as###a defendant'
p209
aS'goldman sachs###be the price of###u.s. oil stays'
p210
aS'683###fell on###the nasdaq'
p211
aS'each change###reduced###the value assigned to the gap risk until deutsche bank eventually stopped adjusting for gap risk altogether'
p212
aS'we###believe###given improved returns " analysts at goldman sachs said in a report'
p213
aS'tiffany###has been hit by###a strong dollar which has made it more expensive for foreign visitors to splurge in the united states'
p214
aS'international beverages private ltd###be unit of###coca-cola'
p215
aS'priceline###held###about 5 percent'
p216
aS'express scripts holding co###is the largest u.s. manager of###pharmacy benefit plans'
p217
aS'goldman sachs###employs around 5,500 people in###britain'
p218
aS'bnp paribas , citigroup , jp morgan , morgan stanley and natixis###will arrange###the investor meeetings'
p219
aS"amgen 's high-dose injections###could be appealing in###light of recent clinical data that has shown that keeping ldl very low can better protect against heart attack and stroke in high risk patients.trial data"
p220
aS"that fact combined with its loose peg to the u.s. dollar###is a big challenge to###chinese policymakers ' ambitions"
p221
aS'around 5,500 people###be employs by###goldman sachs'
p222
aS'any deal###be approving .both###time warner cable and charter'
p223
aS'the u.s. supreme court###ruled against###cisco systems inc'
p224
aS'goldman sachs###said adding to###a growing list of headwinds crude faces'
p225
aS"brazil 's current account gap###widened up from $ 5.736 billion in march in line market expectations in###last month"
p226
aS"cox 's family owners###may therefore is###not be interested in selling , while heavily indebted cablevision faces considerable competition from verizon communications ' fibre network in new york , new jersey and connecticut and therefore is less profitable"
p227
aS'goldman sachs###said###prices'
p228
aS"bulgaria 's beh###considers###$ 550 mln loan to pay aes , contourglobal"
p229
aS'the canadian dollar###touched c$ 1.2395 to###the u.s. dollar'
p230
aS'emc###holds###an 80 percent stake'
p231
aS'may 26 goldman sachs###has named###kate richdale and andrea vella'
p232
aS'the nasdaq composite###dropped###67.90 points , or 1.33 percent'
p233
aS'marlboro###be owns by###altria group'
p234
aS"nigeria 's main oil union###has shut down###the local operations of u.s. oilfield services provider halliburton co"
p235
aS"the company which provides drilling services to royal dutch shell plc and chevron corp in africa 's top oil producer ,###said in###april"
p236
aS'u.s. shale oil producers###to ramp up drilling###goldman sachs'
p237
aS'firefighters###fought###a blaze that erupted at an apple inc facility in mesa , arizona on tuesday'
p238
aS'sanofi/regeneron and amgen###are conducting###larger trials'
p239
aS'goldman sachs###is building###a new 111,500 square meter european headquarters'
p240
aS"one target of new reforms###could be###the state 's law enforcement officers"
p241
aS'four mines###be buying from###barrick and newmont mining corp'
p242
aS'warehouse club operator costco wholesale corp###is###likely'
p243
atRp244
.