c__builtin__
set
p1
((lp2
S'cvs--cvs###is the second-largest pharmacy benefit manager in###addition'
p3
aS'tap--tap###operates a fleet of 77 planes with###2,500 weekly flights , many of them'
p4
aS'kim--kim###connects###north koreans hiding'
p5
aS'key--key###rating###drivers ppsi-ii'
p6
aS'kim--kim###connects north koreans hiding in china with###brokers'
p7
aS'tap--tap###operates###a fleet of 77 planes'
p8
aS'gm--gm###submitted to###the oversight requirements'
p9
aS"tap--tap###was hit by###a 10-day pilots ' strike"
p10
aS'cvs--cvs###is the second-largest pharmacy benefit manager in###the united states'
p11
aS'cvs--cvs###is###the second-largest pharmacy benefit manager'
p12
atRp13
.c__builtin__
set
p1
((lp2
S"progressive--mnire 's disease###is a disorder vertigo of###the inner ear causing progressive deafness"
p3
aS"gap--gap 's profit###falls###8 pct"
p4
aS'conocophillips--conocophillips###looked at###deals'
p5
aS'gap--gap###released###first-quarter revenue and comparable sales'
p6
aS'wells fargo--wells fargo###to change###u.s. money market funds'
p7
aS'wells fargo--its online investment advice###to add to be###wells fargo'
p8
aS'time warner--time warner cable inc###be company of###u.s. cable'
p9
aS'target--the term deposit facility###is###one of the tools the fed has said it will use to reduce cash in the banking system to achieve its interest rate target'
p10
aS'u.s. dollar--the u.s. dollar###will regain###strength'
p11
aS'transocean--reuters###has settled with###oilfield services provider halliburton co and contract driller transocean ltd cross claims'
p12
aS'citigroup--bnp paribas , bank of america merrill lynch , citigroup , deutsche bank , morgan stanley and santander gbm###to schedule###a series of fixed-income investor meetings'
p13
aS'altria--marlboro maker altria group inc###leads###the market'
p14
aS'apple--apple###boosted its repurchase program under###pressure'
p15
aS'kroger--it###gained coveted space in###the freezers of kroger co'
p16
aS'conocophillips--ryan lance###be the chief executive of###conocophillips'
p17
aS'nasdaq--the nasdaq composite###rose###19.05 points , or 0.38 percent'
p18
aS"southern--about 80 percent of mexico 's current oil production###comes from###shallow water deposits clustered around the southern rim of the gulf of mexico"
p19
aS'target--its end-2015 target###be revised from###0.50 percent'
p20
aS'halliburton--the settlement funds###be established in###the halliburton settlement'
p21
aS"gap--gap 's old navy line###however has drawn###customers"
p22
aS'reynolds american--reynolds american inc###be owner of###camel cigarette brand'
p23
aS'target--china###to meet###2015 gdp target of around 7 pct'
p24
aS'apple--apple shares###ended on###the nasdaq'
p25
aS'lockheed martin--may 21 lockheed martin corp###has won###a $ 735.5 million contract to maintain and operate several u.s. military secure communications satellites'
p26
aS'target--inflation###is below###target'
p27
aS'target--its target###be raised to###0.60 percent'
p28
aS'merck--merck###suspended sales in###2013'
p29
aS'transocean--bp###was at###fault and that transocean and halliburton were not as much to blame'
p30
aS'target--we###have###the ability and confidence to meet this target and to maintain medium-to-high speed economic growth'
p31
aS"general motors--washington may 21###will oversee###general motors co 's decision-making"
p32
aS'u.s. dollar--the u.s. dollar###weakened as###investors'
p33
aS'citigroup--citigroup###has promoted mark tweedie to###the position of head of corporate banking'
p34
aS'home depot--home depot###beats###expectations'
p35
aS'morgan stanley--barclays plc healthcare investment banker jason truman###has left###morgan stanley'
p36
aS'best buy--best buy profit###beats###smartphones'
p37
aS'goldman sachs--goldman sachs###revised###its end-2015 target'
p38
aS'target--his 2 percent inflation target###be hit around###the first half of next fiscal year which begins in april 2016'
p39
aS'gap--the gap###to halve in###five years'
p40
aS'target--its target###be raised among###the other banks that made sharp upwards revisions this month'
p41
aS'state street--bank of new york mellon corp , pnc financial services inc , and state street###are among###the banks that could benefit from the higher threshold'
p42
aS'apple--apple###ranked second behind drugmaker actavis plc , as###a top 10 holding'
p43
aS'goldman sachs--gerry cardinale###be investor of###goldman sachs group inc private equity'
p44
aS'time warner--u.s. federal communications commission chairman tom wheeler###reached out to###the chief executives of time warner cable inc'
p45
aS'apple--underweight shares of apple###will hurt###their performance'
p46
aS'u.s. dollar--the u.s. dollar###weakened against###the euro'
p47
aS'transocean--bp###will also discontinue###its attempts to recover as an "additional insured " under transocean \'s liability policies'
p48
aS'hp--hp profit###beats street on###lower costs'
p49
aS'halliburton--bp###was at###fault and that transocean and halliburton were not as much to blame'
p50
aS'time warner--the moves###come as###time warner cable'
p51
aS'transocean--plc###has settled with###oilfield services provider halliburton co and contract driller transocean ltd cross claims'
p52
aS'nasdaq--the shares###would be buy over###the nasdaq stock market or on'
p53
aS"nasdaq--the company 's shares###be listed on###the nasdaq"
p54
aS'goldman sachs--goldman sachs###is looking to bundle###debt backing'
p55
aS"wells fargo--may 21 wells fargo 's fund unit###said of###it"
p56
aS'gap--the gap###will be narrowed further since###gasoline'
p57
aS"gap--gap 's old navy line###however has drawn customers with###its affordable-yet-trendy merchandise"
p58
aS'apple--apple###continues to grow###earnings'
p59
aS"general motors--u.s. regulators###will oversee###general motors co 's decision-making"
p60
aS'apple--existing customer apple inc###had renewed###a deal to license its maps in apple products'
p61
aS"nasdaq--the company 's shares listed on the nasdaq in august last year###fell###16 percent"
p62
aS'target--the trial at target concluded in april , and the product###is no longer on###the shelves'
p63
aS'nasdaq--the nasdaq composite###recorded###75 new highs and 48 new lows'
p64
aS'best buy--best buy###has cut jobs since###2012'
p65
aS'conocophillips--conocophillips###looked from###time'
p66
aS'home depot--home depot###did###a pretty good job'
p67
aS'time warner--federal communications commission chairman tom wheeler###reached out to###the chief executives of time warner cable inc'
p68
aS'morgan stanley--morgan stanley###upgraded###its stock rating'
p69
aS'target--its target###be raised by###a modest 10 basis points'
p70
aS"goldman sachs--goldman sachs###asks shareholders to###'like ' tech push"
p71
aS'target--firm###be held on###its 0.50 percent target set back in january'
p72
aS'general mills--general mills###bought###organic food maker annies'
p73
aS'waters--the united states###would go to preserve###the ability of all countries to move in international waters and airspace'
p74
aS'reynolds american--reynolds american inc###be owner for###camel cigarette brand'
p75
aS'u.s. dollar--the u.s. dollar###weakened in###this week'
p76
aS'apple--apple shares###ended in###thursday'
p77
aS'nasdaq--apple shares###ended on###the nasdaq'
p78
aS'u.s. dollar--the u.s. dollar###weakened on###thursday'
p79
aS'gap--gap###released first-quarter revenue in###last week'
p80
aS'time warner--it###has also approached###time warner cable'
p81
aS'apple--apple###boosted its repurchase program in###april'
p82
aS'waters--the santa barbara channel and surrounding waters###are also dotted with###nearly two dozen oil platforms and hundreds of wells'
p83
aS'apple--apple shares###ended on###thursday'
p84
aS'altria--altria group inc###be maker of###marlboro'
p85
aS'boeing--boeing###be giant for###aerospace'
p86
aS'target--its target###be raised to###0.90 percent'
p87
aS'best buy--best buy###has cut removed layers of management###jobs'
p88
aS"halliburton--halliburton###did the cementing work for###bp 's well"
p89
aS'apple--apple###ranked among###hedge funds'
p90
aS'target--barclays###held firm on###its 0.50 percent target set back in january'
p91
aS"gap--gap 's old navy line###however has attracted more customers with###its affordable-yet-trendy merchandise"
p92
aS"general motors--they###have extended###their oversight of general motors co 's decision-making"
p93
aS'time warner--time warner cable###be provider of###u.s. cable'
p94
aS'kellogg--) and kellogg co###be had market share declines of###0.3 points and 1.9 points'
p95
aS'apple--apple###continues to launch###new products'
p96
aS'u.s. dollar--the u.s. dollar###weakened for###the first time'
p97
aS'halliburton--halliburton###said in###september'
p98
aS'target--china###has###the ability to meet its 2015 economic growth target of around 7 percent the official news agency xinhua said on thursday'
p99
aS'nasdaq--it###would buy the shares over###the nasdaq stock market or on'
p100
aS'target--its yield target###be also doubled to###0.4 percent'
p101
aS'target--inflation###hit###his 2 percent inflation target'
p102
aS'goldman sachs--goldman sachs###revised its end-2015 target for bund yields from###0.50 percent'
p103
aS'nasdaq--nasdaq###adds###comment ) by noel randewich may 21 ( reuters ) - the s&p 500 closed at a record high on thursday after disappointing economic data bolstered expectations that an interest rate hike is likely to come only later in the year'
p104
aS'citigroup--citigroup###has promoted###mark tweedie'
p105
aS'goldman sachs--goldman sachs###to bundle###debt backing'
p106
aS"wells fargo--may 21 wells fargo 's fund unit###said on###thursday"
p107
aS'apple--about 53 million apple shares###be owned at###the end of the first quarter'
p108
aS'target--its target###be raised from###0.50 percent'
p109
aS'home depot--rival home depot inc###piled on###marketing'
p110
aS'wells fargo--wells fargo###to sign###stock jumps'
p111
aS'target--goldman sachs###raised###its target'
p112
aS'target--the government###will not meet###its full-year growth target of around 7 percent'
p113
aS'kroger--the bars###will be sold in###about 400 kroger stores'
p114
aS'goldman sachs--mario alberto huertas###has appointed###goldman sachs'
p115
aS'gap--10 percent###be fell at###the gap brand'
p116
aS'apple--apple###ranked second behind drugmaker actavis plc , with###69 hedge funds owning the tech giant'
p117
aS'gap--the gap###then disappear in###the next decade'
p118
aS'gap--the gap###is to halve in###five years'
p119
aS'time warner--update 1-fcc chairman###reached out to###time warner cable'
p120
aS'progressive--the iconic chain###to be transform into###a "modern , progressive burger company'
p121
aS'hp--hp profit###beats###street'
p122
aS'target--the country###has###the ability to meet its 2015 gdp growth target of around 7 percent'
p123
aS'at&t--verizon###agreed to buy###aol)[enabler=while at&t ( t.n '
p124
aS'goldman sachs--goldman sachs###raised its target among###the other banks that made sharp upwards revisions this month'
p125
aS'lockheed martin--the lockheed martin###to make the trip to###paris'
p126
aS'citigroup--the sec###gave###jp morgan chase & co , citigroup inc , ubs ag , barclays plc and the royal bank of scotland'
p127
aS'best buy--best buy###has cut jobs###removed layers of management'
p128
aS'transocean--bp plc###has settled with###oilfield services provider halliburton co and contract driller transocean ltd cross claims'
p129
aS'target--its end-2015 target###be revised to###0.90 percent'
p130
aS'best buy--best buy profit###beats smartphones on###strong demand'
p131
aS'home depot--home depot###capitalized on###the storms and the winter months'
p132
aS'halliburton--bp plc###has settled with###oilfield services provider halliburton co and contract driller transocean ltd cross claims'
p133
aS'hershey--hershey###bought###krave'
p134
aS"goldman sachs--lone star and goldman sachs###failed hotels after###the country 's asset bubble burst in the early 1990s"
p135
aS'apple--apple###ranked as###the most popular stock'
p136
aS'home depot--home depot###topped###expectations'
p137
aS'halliburton--plc###has settled with###oilfield services provider halliburton co and contract driller transocean ltd cross claims'
p138
aS'goldman sachs--steven witkoff###has enlisted###the help of former goldman sachs group inc private equity investor gerry cardinale'
p139
aS'target--the economy###be keeping on###track to hit the price target'
p140
aS'target--its yield target###be also doubled from###0.2 percent'
p141
aS'goldman sachs--a goldman sachs research note###be dated in###may 20'
p142
aS'nasdaq--the nasdaq composite###added 19.05 points , or 0.38 percent , to###5,090.79'
p143
aS'best buy--best buy###has closed###stores'
p144
aS'lockheed martin--the lockheed martin###to make###the trip'
p145
aS'morgan stanley--bnp paribas , bank of america merrill lynch , citigroup , deutsche bank , morgan stanley and santander gbm###to schedule###a series of fixed-income investor meetings'
p146
aS'target--its full-year growth target of around 7 percent###will be not meet with###additional stimulus measures'
p147
aS'apple--icahn###owned###about 53 million apple shares'
p148
aS'nasdaq--the nasdaq composite###advanced###19.52 points , or 0.38 percent'
p149
aS'home depot--home depot###began###its own marketing program'
p150
aS'goldman sachs--goldman sachs###raised its target from###0.50 percent'
p151
aS'gap--comparable sales###fell 10 percent at###the gap brand'
p152
aS'hershey--hershey###bought krave , an upscale jerky company , in###march'
p153
aS'wells fargo--wells fargo###to sign stock jumps on###financial engines'
p154
aS'waters--the united states###to preserve###the ability of all countries to move in international waters and airspace'
p155
aS"gap--gap 's profit###falls###8 percent"
p156
aS'boeing--boeing###be giant of###aerospace'
p157
aS"nasdaq--financial engines ' stock###retreated slightly still up 4 percent in thursday afternoon trading on###nasdaq"
p158
aS"goldman sachs--lone star and goldman sachs###failed banks after###the country 's asset bubble burst in the early 1990s"
p159
aS'goldman sachs--steven witkoff###has enlisted###the help of former goldman sachs group inc'
p160
aS'altria--marlboro maker altria group inc###leads the market with###a 49 percent share'
p161
aS'target--u.s.-led air###strikes###target islamic state syria'
p162
aS'pnc financial services--bank of new york mellon corp , pnc financial services inc , and state street###are among###the banks that could benefit from the higher threshold'
p163
aS'target--finance minister joaquim levy###to meet###a primary fiscal surplus target of 1.2 percent'
p164
aS'citigroup--he###was head-hunted by###u.s.-based citigroup'
p165
aS'home depot--home depot###saw###its sales and profit beat expectations'
p166
aS'target--a primary fiscal surplus target of 1.2 percent###to be meet in###2015'
p167
aS'discover financial services--harit talwar###be recently hired from###discover financial services'
p168
aS'boeing--boeing###appoints###bernie dunn'
p169
aS'bank of new york mellon--bank of new york mellon corp###will pay $ 180 million to settle###a foreign exchange-related putative class action lawsuit'
p170
aS'target--jp morgan###raised###its target'
p171
aS'gap--apparel retailer gap inc###reported###an 8 percent fall hurt by a stronger dollar'
p172
aS'apple--apple###ranked###second behind drugmaker actavis plc'
p173
aS'goldman sachs--goldman sachs###raised###its target'
p174
aS'home depot--home depot###topped expectations in###a day'
p175
aS'southern--he###lives in###the prosperous southern english county of surrey'
p176
aS'southern--shallow water deposits###be clustered around###the southern rim of the gulf of mexico'
p177
aS'wells fargo--wells fargo###also offers###online advice'
p178
aS'bank of america--bnp paribas , bank of america merrill lynch , citigroup , deutsche bank , morgan stanley and santander gbm###to schedule###a series of fixed-income investor meetings'
p179
aS'nasdaq--marvin###reached with###nasdaq omx psx'
p180
aS'nasdaq--the nasdaq composite###gained###5.17 points , or 0.24 percent'
p181
aS'southern--four trucks###were searched one in###the southern province of adana'
p182
aS'halliburton--halliburton###said###it'
p183
aS'nasdaq--the nasdaq composite .ixic###rose 19.05 points , or 0.38 percent to###5,090.79'
p184
aS'target--interest###be received from###target corp'
p185
aS'nasdaq--the nasdaq composite###added###19.05 points , or 0.38 percent'
p186
aS'wells fargo--wells fargo###also offers online advice through###a partnership'
p187
aS'goldman sachs--goldman sachs###asks###shareholders'
p188
aS"gap--gap 's old navy line###however has attracted###more customers"
p189
aS'target--a $ 1.2 billion market value to be a prime takeover target in the farm sector###be has by###andersons'
p190
aS'target--the eu###agreed###a naval mission to target gangs'
p191
aS'target--nutrition bar company mediterra inc###received interest from###target corp'
p192
aS"apple--underweight apple bets###will hurt###funds ' performance"
p193
aS'nasdaq--the nasdaq composite###was ahead 6.28 points , 0.3 percent , to###2,132.13'
p194
aS'apple--icahn###has pushed###apple'
p195
aS'goldman sachs--goldman sachs & co , bank of montreal , deutsche bank , and pnc###were cited as###counterparties'
p196
aS'apple--apple###should increase###its share buybacks'
p197
aS'bank of new york mellon--bank of new york mellon corp , pnc financial services inc , and state street###are among###the banks that could benefit from the higher threshold'
p198
aS'time warner--fcc chairman###reached out to###time warner cable'
p199
aS'nasdaq--the nasdaq composite###rose 19.05 points , or 0.38 percent to###5,090.79'
p200
aS"gap--gap 's profit###falls due to###strong dollar"
p201
aS'discover financial services--it###recently hired harit talwar from###discover financial services'
p202
aS'nasdaq--the nasdaq composite###gained 5.17 points , or 0.24 percent , to###2,131.02'
p203
aS'nasdaq--the nasdaq composite###advanced 19.52 points , or 0.38 percent , to###5,091.26'
p204
aS'apple--apple###ranked with###191 hedge funds owning the company'
p205
aS'target--it###to meet###a primary fiscal surplus target of 1.2 percent'
p206
aS'altria--altria group inc###be maker for###marlboro'
p207
aS"goldman sachs--twitter 's cfo , not###cred in###goldman sachs group inc 's latest move"
p208
aS"nasdaq--the company 's shares###closed on###the nasdaq"
p209
aS'goldman sachs--goldman sachs###revised its end-2015 target for bund yields to###0.90 percent'
p210
aS'nasdaq--the nasdaq composite###added 22.20 points , or 0.44 percent , to###5,093.94'
p211
aS'nasdaq--the nasdaq composite###added###22.20 points , or 0.44 percent'
p212
aS'goldman sachs--gerry cardinale###be investor for###goldman sachs group inc private equity'
p213
aS'transocean--transocean###had settled###its clean water act liability'
p214
aS'ford motor--mich ford motor co###said in###thursday'
p215
aS'halliburton--reuters###has settled with###oilfield services provider halliburton co and contract driller transocean ltd cross claims'
p216
aS'transocean--we###applaud###transocean'
p217
aS'apple--apple###boosted###its repurchase program'
p218
aS"general motors--general motors co 's decision-making###will be oversee for###an additional year"
p219
aS'target--it###also doubled###its yield target'
p220
aS'target--goldman sachs###revised###its end-2015 target'
p221
aS"nasdaq--the company 's shares listed on the nasdaq in august last year###fell 16 percent in###extended trading"
p222
aS'goldman sachs--goldman sachs###raised its target to###0.90 percent'
p223
aS'target--china###has###the ability to meet its 2015 target the official news agency xinhua said on thursday'
p224
aS'gap--gap###said on###thursday'
p225
aS'u.s. dollar--investors###remained###wary making new bets that the u.s. dollar will regain strength even as u.s. data showed economic momentum was improving'
p226
aS'gap--the gap###is on###course'
p227
aS'goldman sachs--lone star and goldman sachs###failed###banks and hotels'
p228
aS'halliburton--the u.s. government###never sued###halliburton'
p229
aS'wells fargo--wells fargo###be the fourth-largest u.s. bank by###assets'
p230
aS"goldman sachs--goldman sachs###is looking to bundle debt backing three of colombia 's 4g highway projects and sell it as###an up to us$ 500m 144a bond"
p231
aS'target--its 0.50 percent target###be set back in###january'
p232
aS'merck--merck###suspended###sales'
p233
aS'target--target###concluded in###april'
p234
aS'time warner--federal communications commission chairmantom###wheelerreached out to###the chief executives of time warner cable inc'
p235
atRp236
.