(lp1
c__builtin__
set
p2
((lp3
S"merck--its chief executive###was quoted in###germany 's merck kgaa ( mrcg.de ) expects sales to grow by around 5 percent in its core operations over coming years , helped by its pipeline of prospective new drugs"
p4
atRp5
ag2
((lp6
S'general motors--justice department investigators###have identified criminal wrongdoing in###general motors co'
p7
atRp8
a.