(lp1
c__builtin__
set
p2
((lp3
S'conocophillips--myanmar###has awarded contracts to###international oil majors statoil and conocophillips'
p4
atRp5
ag2
((lp6
S'time warner cable--top executives###have reached out at###time warner cable inc'
p7
aS'time warner--top executives###have reached out at###time warner cable inc'
p8
atRp9
a.