c__builtin__
set
p1
((ltRp2
.c__builtin__
set
p1
((lp2
S'wells fargo--major stock holdings###meanwhile include co.###american express co , coca-cola co , international business machines corp and wells fargo'
p3
aS'southern--turkmen gas###to be bring via###the so-called " southern gas corridor which includes azerbaijan and turkey'
p4
aS'southern--azerbaijan and turkey###be includes by###the so-called " southern gas corridor'
p5
aS'nasdaq--the nasdaq composite index .ixic###also hit###a record'
p6
aS'coca-cola--major stock holdings###meanwhile include co.###american express co , coca-cola co , international business machines corp and wells fargo'
p7
aS'american express--major stock holdings###meanwhile include co.###american express co , coca-cola co , international business machines corp and wells fargo'
p8
aS'u.s. dollar--the weakest reading###be hurt by###both weak crude oil prices and a strong u.s. dollar'
p9
aS'southern--clashes###continued in###the southern port city of aden'
p10
aS'international business machines--major stock holdings###meanwhile include co.###american express co , coca-cola co , international business machines corp and wells fargo'
p11
aS'kellogg--major curt kellogg###said in###an email'
p12
aS'walt disney--trilogy###being produced by###walt disney co'
p13
aS"chevron--erroneous reference###to remove to be###chevron 's use of the port"
p14
aS'u.s. dollar--the u.s. dollar###to remain reserve currency of###the world'
p15
aS'kellogg--major curt kellogg###said###an email'
p16
aS'u.s. dollar--the stronger u.s. dollar###added to###these gains'
p17
aS"u.s. dollar--the u.s. dollar###to remain###the world 's reserve currency"
p18
aS'microsoft--bill gates###be chairman of###microsoft corp'
p19
aS'southern--it###is an important transit nation from###the point of view of the southern gas corridor'
p20
atRp21
.