c__builtin__
set
p1
((ltRp2
.c__builtin__
set
p1
((lp2
S'harris--harris###recently announced###her campaign'
p3
aS'southern--southern copper controlled by grupo mexico###to build###a desalinisation plant'
p4
aS"merck--germany 's merck###expects###drug division to drive growth"
p5
aS'gap--he###also complained###a significant gap'
p6
aS'southern--tia maria###be project of###southern copper corp'
p7
aS"merck--the two companies###will develop###merck 's so-called anti-pd-l1 agent"
p8
aS'merck--drugs , chemicals and laboratory supplies###be makes by###merck'
p9
aS'boeing--a two-seater###be built by###the boeing corp'
p10
aS'ford motor--ford motor co vice president ziad ojakli###said in###a statement'
p11
aS'merck--merck###struck###the alliance'
p12
aS'southern--southern copper###be controlled by###grupo mexico'
p13
aS'boeing--a two-seater built by the boeing corp###be also known as###the goshawk'
p14
aS"southern--may 23 peru###instituted a 60-day state of emergency in###a mineral-rich region roiled by deadly protests against southern copper corp 's stalled $ 1.4 billion tia maria project"
p15
aS'merck--merck###struck the alliance over###cancer immunotherapy drugs'
p16
aS'southern--southern copper controlled by grupo mexico###has promised to build###a desalinisation plant'
p17
aS'harris--harris###said###a statement'
p18
aS'merck--merck###said in###this week'
p19
aS'boeing--a two-seater built by the boeing corp.###be also known as###the goshawk'
p20
aS'harris--harris###said in###a statement'
p21
aS"southern--a 60-day state of emergency###be instituted in###a mineral-rich region roiled by deadly protests against southern copper corp 's stalled $ 1.4 billion tia maria project"
p22
aS'boeing--a two-seater###be built by###the boeing corp.'
p23
aS"southern--the state 's southern border###turned to###a battleground"
p24
aS'merck--merck###posted###group sales of 11.3 billion euros'
p25
aS"merck--merck 's so-called anti-pd-l1 agent###will be develop as###a single therapy"
p26
aS"southern--the state 's southern border###turned into###a battleground"
p27
aS'waters--whose ruptured pipe###fouled###beaches and offshore waters'
p28
atRp29
.