(lp1
c__builtin__
set
p2
((lp3
S'goldman sachs--witkoff###has enlisted###the help of former goldman sachs group inc'
p4
atRp5
ag2
((lp6
S"wells fargo--21 wells fargo 's fund unit###may said on###money market funds"
p7
aS"wells fargo--21 wells fargo 's fund unit###may said marking###the latest fund operator to adopt moves"
p8
atRp9
ag2
((lp10
S"general motors--regulators###will oversee###general motors co 's decision-making"
p11
aS"general motors--general motors co 's decision-making###will be oversee for###an additional year"
p12
atRp13
ag2
((lp14
S'boeing--lockheed boeing rocket venture###needs###commercial orders'
p15
atRp16
ag2
((lp17
S'goldman sachs--witkoff###has enlisted###the help of former goldman sachs group'
p18
atRp19
ag2
((lp20
S"general motors--they###have extended###their oversight of general motors co 's decision-making"
p21
atRp22
ag2
((lp23
S"goldman sachs--goldman sachs###asks shareholders to###'like ' tech push"
p24
aS'goldman sachs--goldman sachs###asks###shareholders'
p25
atRp26
ag2
((lp27
S"gap--gap 's profit###falls###8 pct"
p28
aS'gap--( reuters ) - apparel retailer gap inc###reported###an 8 percent fall hurt by a stronger dollar'
p29
atRp30
ag2
((lp31
S'google--russia###warns###google , twitter and facebook'
p32
aS'facebook--russia###warns###google , twitter and facebook'
p33
atRp34
ag2
((lp35
S'goldman sachs--corrected update 1 goldman sachs###asks###shareholders'
p36
aS"goldman sachs--corrected update 1 goldman sachs###asks shareholders to###'like ' tech push"
p37
atRp38
ag2
((lp39
S'citigroup--tom hayes###be a former star trader at###ubs and citigroup'
p40
atRp41
ag2
((lp42
S"lorillard--cigarette brand owner###reynolds###american inc 's planned acquisition of smaller rival lorillard inc"
p43
atRp44
ag2
((lp45
S'home depot--rival home depot inc###piled on###marketing'
p46
atRp47
ag2
((lp48
S'bank of america--bank of america merrill lynch###has become optimistic on###the energy sector'
p49
aS'bank of america--bank of america merrill lynch###has become optimistic on###a small and large cap basis'
p50
atRp51
ag2
((lp52
S'best buy--best buy profit###beats smartphones on###strong demand'
p53
aS'best buy--best buy profit###beats###smartphones'
p54
aS'best buy--best buy co inc###reported###better-than-expected quarterly profit and sales , helped by strong demand for smartphones and large-screen tvs'
p55
aS'best buy--best buy co inc###reported sales sending its shares up over###8 percent'
p56
atRp57
ag2
((lp58
S'citigroup--moves citigroup###picks###tweedie'
p59
aS'citigroup--citigroup###has promoted###mark tweedie'
p60
aS'citigroup--citigroup###has promoted mark tweedie to###the position of head of corporate banking'
p61
atRp62
ag2
((lp63
S"gap--gap 's profit###falls###8 percent"
p64
aS"gap--gap 's profit###falls due to###strong dollar"
p65
atRp66
ag2
((lp67
S'time warner cable--fcc chairman###reached out to###time warner cable'
p68
aS'time warner--federal communications commission chairman tom wheeler###reached out to###the chief executives of time warner cable inc'
p69
aS'time warner cable--federal communications commission chairman tom wheeler###reached out to###the chief executives of time warner cable inc'
p70
aS'time warner--fcc chairman###reached out to###time warner cable'
p71
atRp72
ag2
((lp73
S"goldman sachs--corrected goldman sachs###asks shareholders to###'like ' tech push"
p74
aS'goldman sachs--corrected goldman sachs###asks###shareholders'
p75
atRp76
ag2
((lp77
S'time warner cable--fcc chairman###reached out to###time warner cable'
p78
aS'time warner--federal communications commission chairman tom wheeler###reached out to###the chief executives of time warner cable inc'
p79
aS'time warner cable--federal communications commission chairman tom wheeler###reached out to###the chief executives of time warner cable inc'
p80
aS'time warner--fcc chairman###reached out to###time warner cable'
p81
atRp82
ag2
((lp83
S'apple--underweight shares of apple###will hurt###their performance'
p84
aS"apple--underweight apple bets###will hurt###funds ' performance"
p85
atRp86
ag2
((lp87
S'bank of new york mellon--bank of new york mellon corp###will pay $ 180 million to settle###a foreign exchange-related putative class action lawsuit'
p88
atRp89
ag2
((lp90
S'hp--hp profit###beats###street'
p91
atRp92
ag2
((lp93
S"lorillard--american inc 's planned acquisition of smaller rival lorillard inc###to receive u###.s"
p94
atRp95
ag2
((lp96
S'bank of new york mellon--bank of new york mellon corp###will pay $ 180 million to settle###a foreign exchange-related putative class action lawsuit'
p97
atRp98
ag2
((lp99
S'fossil--fossil fuels###could become unnecessary was before###the middle of the century'
p100
aS'fossil--saudi oil minister###sees###eventual end of fossil fuels'
p101
atRp102
ag2
((lp103
S'time warner cable--fcc chairman###reached out to###time warner cable'
p104
aS'time warner--federal communications commission chairmantom###wheelerreached out to###the chief executives of time warner cable inc'
p105
aS'time warner cable--federal communications commission chairmantom###wheelerreached out to###the chief executives of time warner cable inc'
p106
aS'time warner--fcc chairman###reached out to###time warner cable'
p107
atRp108
ag2
((lp109
S"lorillard--american inc 's planned acquisition of smaller rival lorillard inc###to receive u###.s"
p110
atRp111
ag2
((lp112
S'gap--apparel retailer gap inc###reported###an 8 percent fall hurt by a stronger dollar'
p113
aS"gap--gap 's profit###falls###8 pct"
p114
atRp115
ag2
((lp116
S"goldman sachs--corrected rpt goldman sachs###asks shareholders to###'like ' tech push"
p117
aS'goldman sachs--corrected rpt goldman sachs###asks###shareholders'
p118
atRp119
a.