c__builtin__
set
p1
((lp2
S'yum###should spin off###its china business'
p3
aS'ge###sees###an opportunity'
p4
aS'gm###announced###the $ 5 billion share buyback to appease frustrated investors'
p5
aS'ge###has###a checkered history'
p6
aS'ed###secured###the support of trade unions'
p7
aS'ge###has until###next month to offer concessions if it cannot convince the eu enforcer'
p8
aS'ed###won in###the fourth'
p9
aS'ed###won by###a hair'
p10
aS"yum###be touts by###greenlight 's einhorn slams oil frackers"
p11
aS'gm###will continue to work with###partners'
p12
aS'ea###to benefit from###advertising'
p13
aS'eog###was###the latest major u.s. shale oil producer'
p14
aS'gm###to follow###its own plan regarding investing in product development'
p15
aS'yum###should spin off its china business allowing###a fully independent china company'
p16
aS"ge###is offering retailers###a way to connect with shoppers ' smartphones through technology"
p17
aS'ge###has between 6 cents in###2016'
p18
aS'eog###considered###a leader'
p19
aS'cf###is caused by###a missing or defective gene that makes the body'
p20
aS'gm###will continue to follow###its own plan regarding investing in product development'
p21
atRp22
.c__builtin__
set
p1
((lp2
S'william and kate###to travel in###southern england'
p3
aS'macerich###settles to add###two independent directors'
p4
aS'nasdaq###be outperformed as###ceo'
p5
aS'he###would cut costs in###a bid to turn the fast-food chain into a "modern , progressive burger company'
p6
aS'general electric co###announced collaborations with qualcomm inc and apple inc on###monday'
p7
aS'pacific rubiales###has kicked off investor meetings through###merrill lynch , citigroup and hsbc'
p8
aS"john zahurancik###be president of###power company aes corp 's energy storage business"
p9
aS'record quarterly production , and concho resources inc###raised its 2015 production outlook citing###technological improvements'
p10
aS'international sanctions###are lifted including###the u.s. majors exxonmobil and conocophillips'
p11
aS'wells fargo###only confirmed###the departure of sievewright'
p12
aS'a trust###be backed by###a morgan stanley unit'
p13
aS'the nasdaq composite###was up 14.78 points , 0.3 percent , at###5,020.17'
p14
aS'anadarko petroleum co###reported###a wider quarterly loss'
p15
aS'pioneer natural resources co###told reuters in###last month'
p16
aS'its plan to turn the fast-food chain into a "modern , progressive burger company###to impress###shareholders'
p17
aS'pioneer natural resources co###told###reuters'
p18
aS'sysco###be distributor for###food'
p19
aS"1.usa.gov/1dpq641###has previously served as###ceo of citigroup 's legacy securities"
p20
aS'intel###to begin in###2003'
p21
aS'einhorn###cited###pioneer natural resources co'
p22
aS'the united nations###be invested by###blackrock and state street'
p23
aS'the nasdaq composite###added###11.54 points , or 0.23 percent'
p24
aS'macerich###settles with###investor group'
p25
aS'bill gates###be founder of###microsoft'
p26
aS'the fast-food chain###to be turn into###a "modern , progressive burger company'
p27
aS'dow company walt disney co###to report higher first-quarter revenue after###strong results'
p28
aS'the nasdaq composite###added###9.17 points , or 0.43 percent'
p29
aS'sysco###be distributor of###food'
p30
aS'pozzallo###be a port in###southern sicily'
p31
aS'he###saw no need to ease policy because###a narrowing output gap'
p32
aS"gkl 's southern seoul casino and paradise###are expanding floorspace by###13 percent and 15 percent"
p33
aS"apple###choose###tomtom 's maps"
p34
aS'50-year inflation swaps###do not see###inflation returning to target for the foreseeable future'
p35
aS'the boj###to push back###the timing of its inflation target'
p36
aS'the nasdaq composite###gained 8.52 points , or 0.4 percent to###2,116.81'
p37
aS'the nasdaq composite###gained###23.78 points , or 0.47 percent'
p38
aS'mall owner macerich co###to add two new independent directors as###part of a settlement'
p39
aS'anadarko petroleum co###reported###a wider-than-expected quarterly loss'
p40
aS'cisco systems inc chief executive john chambers###will step down in###july'
p41
aS'the suspected incursion###was the most serious incident in###its waters'
p42
aS'the nasdaq composite###gained###8.52 points , or 0.4 percent'
p43
aS"general electric 's ceo###will meet###europe 's antitrust chief"
p44
aS'cablevision###has said under###pressure to stop consumers from " cutting the cord " and shifting to internet video services such as netflix and hulu'
p45
aS'bank of america corp###plans to hold###a shareholder vote the board made in october to company bylaws'
p46
aS'morgan stanley###be the smallest take among###six asian countries listed'
p47
aS'record quarterly production , and concho resources inc###raised its 2015 production outlook after###a 50 percent cut'
p48
aS'the southern poverty law center###that has described as###a hate group'
p49
aS'shares of cisco###were on###nasdaq'
p50
aS'mall owner macerich co###plans to add two new independent directors as###part of a settlement'
p51
aS"it###was nasdaq 's second biggest company behind###microsoft"
p52
aS'the nasdaq composite###added 9.17 points , or 0.43 percent , to###2,117.46'
p53
aS'einhorn###also mentioned###eog resources inc'
p54
aS'the company###raised###its 2015 year-end run rate revenue target'
p55
aS'bank of america###is###agent'
p56
aS'the nasdaq composite###added 11.54 points , or 0.23 percent , to###5,016.93'
p57
aS'the nasdaq composite###gained###6.16 points , or 0.29 percent'
p58
aS'sysco corp###reported###a lower-than-expected quarterly profit hurt by higher costs and a strong dollar'
p59
aS'the u.s. government and bank of america###backed bullard in###the case which was argued before the high court on april 1'
p60
aS'nasdaq chief executive robert greifeld###joined###the debate'
p61
aS'his price target###be upgraded in###a recent note'
p62
aS'an atlas air boeing 747 cargo plane###landed at###the wrong airports'
p63
aS"kellogg co###be the world 's largest maker of###breakfast cereals"
p64
aS'may 4 oil and natural gas producer eog resources inc###posted###a quarterly loss'
p65
aS'the gap###is narrowing between###the academic and the commercial'
p66
aS'general electric co###be announced collaborations with qualcomm inc and apple inc in###monday'
p67
aS'intel###to launched them in###1993'
p68
aS'no need to ease policy###be saw because###a narrowing output gap'
p69
aS'his price target###be upgraded on###the stock'
p70
aS'cost savings from kellogg \'s ongoing " project k" and higher spending###to have helped###the company'
p71
aS'alleged morgan stanley###had falsely represented###the quality of the loans'
p72
aS'the nasdaq composite .ixic###added 11.54 points , or 0.23 percent , to###5,016.93'
p73
aS'intel###to launched###them'
p74
aS'macerich###said on###monday'
p75
aS'its three peers###be known as###the "four horsemen of the nasdaq'
p76
aS"major fossil fuel companies###be includes by###morgan stanley 's msci index"
p77
aS'sysco###said in###april'
p78
aS'tim quinlan###be an economist at###wells fargo securities'
p79
aS"database software maker oracle corp 's ceo###announced###his plan to become executive chairman"
p80
aS'macerich###said of###john alschuler , chairman of hr&a advisors , and steven hash'
p81
aS'sysco###earned 40 cents per share excluding###items'
p82
aS'the u.s. trade gap###widened in###march'
p83
aS"others###are invested in###funds tied to morgan stanley 's msci index ,"
p84
aS'she###was derisively dubbed from###hp'
p85
aS'colorado###has created###a dangerous gap'
p86
aS"some employees###argued that###the bank 's target of 3.5 percent"
p87
aS'the nasdaq composite###was recording###46 new highs and 27 new lows'
p88
aS'morgan stanley###said###the southern district of new york court'
p89
aS'kellogg co###be largest maker of breakfast cereals of###the world'
p90
aS'harris###has voted in###favor of the merger'
p91
aS"sysco 's operating expenses###rose 4 percent in###the quarter"
p92
aS'exelon corp and dynegy inc.###also challenging###the regulation'
p93
aS'it###returns to###that target'
p94
aS'bank of america###plans###vote'
p95
aS'the maersk tigris###ordered into###iranian waters'
p96
aS'it###was second biggest company of###nasdaq'
p97
aS'the expansion###comes as###delta air lines inc , united continental holdings inc and american airlines group inc press'
p98
aS'it###is###time to focus the economy on electric cars and transit and "environmentally progressive businesses'
p99
aS'oil and gas producer noble energy inc###to report###a much lower first-quarter profit hurt by weak oil prices'
p100
aS"inflation###has been running below###the fed 's 2-percent target"
p101
aS'merrill lynch analyst doug leggate###upgraded###his price target'
p102
aS'moves-deutsche bank tech ecm head###leaves for###bank of america'
p103
aS'mala gaonkar lone pine microsoft microsoft###benefiting from###capital growth'
p104
aS'electronic arts inc###to report###fourth-quarter revenue'
p105
aS"sysco 's operating expenses###rose###4 percent"
p106
aS'microsoft###started###regular payouts'
p107
aS'shares of pioneer natural resources co###fell###1.88 percent'
p108
aS'delta air lines inc###reported###a drop'
p109
aS'its stock price###cited###pioneer natural resources co'
p110
aS'the rebel forces###are now fighting for###control of the southern port city of aden'
p111
aS'nasdaq chief executive robert greifeld###joined the debate about fee-based incentives urging###u.s. regulators'
p112
aS"companies like schlumberger , the world 's no.1 oil-field services provider , and halliburton###have slashed###their capital expenditure"
p113
aS'sysco###said###april'
p114
aS'ubs group ag and wells fargo & co. judson potter###comes from###ubs'
p115
aS'apple###popularized it with###the iphone'
p116
aS'the economy###to be focus on###electric cars and transit and "environmentally progressive businesses'
p117
aS'eog resources posts###be 1st-qtr loss amid###low oil prices'
p118
aS'the nasdaq composite###gained 23.78 points , or 0.47 percent , to###5,029.17'
p119
aS'cisco###outperformed###nasdaq'
p120
aS'harris###be shareholder of###holcim'
p121
aS'jose cuervo###kicked off meetings through###bank of america merrill lynch and citigroup'
p122
aS'record quarterly production , and concho resources inc###raised its 2015 production outlook by###18 to 22 percent'
p123
aS'she###cited###the case of a bio-medical subsidiary of tobacco company reynolds american inc.'
p124
aS"activist investor jonathan litt###nominated four directors to###macerich 's board"
p125
aS'its plan to turn the fast-food chain into a "modern , progressive burger company###failed to impress###shareholders'
p126
aS'general electric co###announced###collaborations'
p127
aS'larry robbins###touted###abbvie inc'
p128
aS'an atlas air boeing 747 cargo plane###landed in###recent years'
p129
aS'it###also beat###the 1,211 percent increase for microsoft corp and 671 percent'
p130
aS'walt disney co###be company for###dow'
p131
aS'mcdonald###to be transform into###a "modern , progressive burger company'
p132
aS'macerich###said###a statement'
p133
aS'his price target###be upgraded to###clients obtained by reuters'
p134
aS'exxonmobil and conocophillips###be majors of###u.s.'
p135
aS'a southwest airlines boeing 737 and an atlas air boeing 747 cargo plane , landed at the wrong airports in recent years due to preventable air traffic control errors , u.s. safety experts###said on###monday'
p136
aS'macerich###said in###a statement'
p137
aS"it###was###nasdaq 's second biggest company"
p138
aS"sysco 's operating expenses###rose 4 percent due to###higher payroll costs"
p139
aS'apple###popularized###it'
p140
aS'the nasdaq composite###gained 6.16 points , or 0.29 percent , to###2,114.45'
p141
aS'the nasdaq composite###was recording###55 new highs and 35 new lows'
p142
aS'potential buyers###include###tech giants apple and uber , or less'
p143
aS'meetings###be kicked off through###bank of america merrill lynch and citigroup'
p144
aS'two-aisle boeing co 777 aircraft###would be fly to###los angeles and atlanta'
p145
aS'sysco###earned###40 cents'
p146
aS'greg leveto###be president of###goldman sachs vice'
p147
aS'sysco###said on###monday'
p148
aS'sysco###said in###monday'
p149
aS'the s&p 500###gained###1.09 percent and the nasdaq 1.29 percent'
p150
aS'the loans###were in###a trust backed by a morgan stanley unit'
p151
aS'nasdaq###be outperformed from###1995'
p152
aS'walt disney co###be company of###dow'
p153
aS'the nasdaq composite .ixic###added###11.54 points , or 0.23 percent'
p154
aS'southwest airlines flight 4013###took off 12 , 2014 , from###chicago midway international airport'
p155
aS'it###to miss###a launch target'
p156
aS'the company###reported around $ 100 million outstanding under###a loan agreement on which bank of america is agent'
p157
aS'nasdaq chief executive robert greifeld###joined the debate about fee-based incentives in###last year'
p158
aS'pioneer natural resources co###be cited as###a particular offender'
p159
aS'shares of pioneer natural resources co###fell###3.1 percent'
p160
aS'morgan stanley###said of###it'
p161
aS'she###was derisively dubbed the anti-steve jobs from###hp'
p162
aS'subscribers###be attracts by###time warner cable'
p163
aS'mall owner macerich co###plans to terminate###its stockholder rights plan'
p164
aS"gkl 's southern seoul casino and paradise###are expanding###floorspace"
p165
aS'the nasdaq composite###added 20.18 points , or 0.4 percent , to###5,025.58'
p166
aS"database software maker oracle corp 's ceo###announced his plan to become executive chairman in###september"
p167
aS"nasdaq###be outperformed in###the first six years of chambers ' term"
p168
aS'gunman###was###target of terror probe'
p169
aS'dow company walt disney co###to report###higher first-quarter revenue'
p170
aS'holcim shareholder harris###has voted for###lafarge tie-up'
p171
aS'costs###would be cut in###a bid to turn the fast-food chain into a "modern , progressive burger company'
p172
aS'cisco systems inc chief executive john chambers###will step down after###20 years'
p173
aS'shares of pioneer natural resources co###lost###1.39 percent'
p174
aS'ppl corp###challenged###the regulation'
p175
aS'record quarterly production , and concho resources inc###raised###its 2015 production outlook'
p176
aS'robbins capital brookdale abbvie###be recently added to###his portfolio'
p177
aS'kellogg###reports###first-quarter results'
p178
aS'the u.s. government and bank of america###backed###bullard'
p179
aS'the nasdaq composite###added###20.18 points , or 0.4 percent'
p180
aS'exxonmobil and conocophillips###be majors for###u.s.'
p181
aS"the southern district of new york court###denied###the company 's motion to dismiss the case"
p182
aS'home and auto insurer allstate corp###to report###better-than-expected revenue and profit'
p183
aS"samsung and walt disney 's marvel###introduced###a marketing campaign that for the first time promotes a movie using short virtual reality films"
p184
aS'the nasdaq composite###gained 8.72 points , or 0.41 percent , to###2,117.01'
p185
aS'former hp ceo fiorina###enters###2016 race'
p186
aS"cognizant 's shares###were on###the nasdaq"
p187
aS'it###would fly###two-aisle boeing co 777 aircraft'
p188
aS'concho resources , whiting petroleum corp and continental resources inc. last year einhorn###unveiled###a short bet'
p189
aS'jb y compania sa de cv###kicked off meetings through###bank of america merrill lynch and citigroup'
p190
aS'mall owner macerich co###plans to add###two new independent directors'
p191
aS'the nasdaq composite###gained###8.72 points , or 0.41 percent'
p192
aS'the southern poverty law center###has paid $ 10,000 for###extra security'
p193
aS'morgan stanley###sees###$ 292 million loss'
p194
aS'the nasdaq composite###added 18.45 points , or 0.37 percent , to###5,023.84'
p195
aS'aercap###recently added###robbins capital brookdale abbvie'
p196
aS"four directors###be nominated to###macerich 's board"
p197
aS'coca-cola###continues to have###a " strong competitive position'
p198
aS'morgan stanley###sees###$ 292 mln loss'
p199
aS'she###to resign from###hp'
p200
aS'the nasdaq composite###gained###6.19 points , or 0.29 percent'
p201
aS'the nasdaq composite###added###18.45 points , or 0.37 percent'
p202
aS'electronic arts inc###be the publisher of###the "fifa"'
p203
aS'morgan stanley###said on###monday'
p204
aS'the nasdaq composite###gained 6.19 points , or 0.29 percent to###2,114.48'
p205
aS'goldman sachs group inc###got###a disconcerting update'
p206
aS'an atlas air boeing 747 cargo plane###landed due to###preventable air traffic control errors'
p207
aS'tenet rival hca holdings inc###be operator of###u.s. hospital'
p208
aS'tenet rival hca holdings inc###cited###stronger admissions'
p209
aS'gary sievewright and christopher leavy###join from###wells fargo advisors'
p210
aS'general electric co###announced collaborations with qualcomm inc and apple inc in###monday'
p211
aS'macerich###said of###the stockholder group'
p212
aS"companies like schlumberger , the world 's no.1 oil-field services provider , and halliburton###have slashed their capital expenditure for###this year citing lower oil prices"
p213
aS'southwest airlines flight 4013###took off###12 , 2014'
p214
aS'its planned $ 42 billion takeover of honeywell international###be blocked in###2001'
p215
aS'nasdaq 0.3 pct###was up on###monday afternoon'
p216
aS'harris###be shareholder for###holcim'
p217
atRp218
.