(lp1
c__builtin__
set
p2
((lp3
S'gap--trade gap###raises###q1 growth concerns'
p4
atRp5
ag2
((lp6
S'pioneer natural--pioneer natural resources co###reported###a quarterly net loss'
p7
atRp8
ag2
((lp9
S"allstate--allstate 's profit###beats###street"
p10
atRp11
ag2
((lp12
S'cisco--cisco veteran robbins###to take over as###ceo'
p13
atRp14
ag2
((lp15
S'at&t--netflix inc###has urged the u .s###federal communications commission to reject the pending $ 48 billion merger of at&t inc and directv unless its concerns about the deal are addressed'
p16
aS'netflix--netflix inc###has urged the u .s###federal communications commission to reject the pending $ 48 billion merger of at&t inc and directv unless its concerns about the deal are addressed'
p17
aS'directv--netflix inc###has urged the u .s###federal communications commission to reject the pending $ 48 billion merger of at&t inc and directv unless its concerns about the deal are addressed'
p18
atRp19
ag2
((lp20
S'allstate--allstate profit###rises###10.4 pct'
p21
aS'allstate--allstate profit###rises 10.4 pct as###catastrophe losses'
p22
atRp23
ag2
((lp24
S'devon--devon###has###quarterly loss'
p25
atRp26
ag2
((lp27
S"electronic arts--video game publisher electronic arts ' revenue###rises###5.5 pct"
p28
atRp29
ag2
((lp30
S'electronic arts--video game publisher electronic arts inc###be known for###titles'
p31
aS'electronic arts--video game publisher electronic arts inc known for titles such as "fifa" and "madden nfl"###posted###a 5.5 percent rise helped by growth in its digital business ,'
p32
atRp33
ag2
((lp34
S'gap--trade gap###raises###q1 growth concerns'
p35
atRp36
ag2
((lp37
S'discovery communications--discovery communications inc###warned of###a bigger hit'
p38
aS'discovery communications--discovery communications inc###warned from###a strengthening dollar'
p39
atRp40
ag2
((lp41
S'occidental petroleum--occidental petroleum###unveils ceo###succession plan'
p42
atRp43
ag2
((lp44
S'salesforce--salesforce shares###be spike on###report of microsoft evaluating bid'
p45
aS'gap--trade gap###raises###concerns'
p46
aS'microsoft--salesforce shares###be spike on###report of microsoft evaluating bid'
p47
atRp48
ag2
((lp49
S'directv--directv revenue###rises###4 percent'
p50
atRp51
ag2
((lp52
S'electronic arts--brief electronic arts inc reports###q4 adjusted###earnings'
p53
atRp54
ag2
((lp55
S'hormel foods--corp unit jennie-o turkey store###will temporarily lay off 233 workers###hormel foods'
p56
aS'hormel foods--hormel foods###will be temporarily lay off 233 workers at###a minnesota plant'
p57
atRp58
ag2
((lp59
S'perrigo--it###was steadfast in###its commitment to acquire ireland-based perrigo co'
p60
atRp61
ag2
((lp62
S"facebook--facebook 's sandberg###emerges to speak at###husband 's memorial"
p63
atRp64
ag2
((lp65
S'facebook--5 facebook inc chief operating officer sheryl###may sandberg re-emerged in###public'
p66
aS'facebook--5 facebook inc chief operating officer sheryl###may sandberg re-emerged on###tuesday'
p67
aS'facebook--5 facebook inc chief operating officer sheryl###may sandberg re-emerged after###the accidental death of her husband'
p68
atRp69
ag2
((lp70
S'nvidia--nvidia###was open to###a sale of the technology'
p71
atRp72
ag2
((lp73
S'hp--hp###bought###autonomy'
p74
aS'hp--he###masterminded###a complex fraud that led it to overpay by more than $ 5 billion when hp bought autonomy in 2011'
p75
aS'hp--hp###bought autonomy in###2011'
p76
atRp77
ag2
((lp78
S'facebook--facebook###use###their market power'
p79
atRp80
ag2
((lp81
S'walt disney--the walt disney co-owned studio###said on###tuesday'
p82
aS'walt disney--the walt disney co-owned studio###said in###tuesday'
p83
atRp84
ag2
((lp85
S'devon--devon energy###has###quarterly loss'
p86
aS'devon--devon energy corp###reported a net loss as the u .s###exploration and production company'
p87
aS'devon--devon energy corp###reported###a net loss'
p88
atRp89
ag2
((lp90
S'electronic arts--video game publisher electronic arts inc###be known for###titles'
p91
aS'electronic arts--video game publisher electronic arts inc known for titles such as "fifa" and "madden nfl"###posted###better-than-expected quarterly earnings and revenue'
p92
atRp93
ag2
((lp94
S'bank of america--5 bank of america merrill lynch###may fired two experienced financial advisers in###colorado'
p95
aS'bank of america--5 bank of america merrill lynch###may fired###two experienced financial advisers'
p96
atRp97
a.