(lp1
c__builtin__
set
p2
((lp3
S'apple--18 the dow helped by a rally in apple as well as weak economic data###to raise###interest rates'
p4
aS'apple--stocks###snapshot dow###apple gains'
p5
aS'apple--18 the dow helped by a rally in apple as well as weak economic data###may may wait to raise###interest rates'
p6
atRp7
ag2
((lp8
S'bank of america--ex bank of america executive###gets for###muni bond scheme'
p9
aS'bank of america--former bank of america corp executive###was sentenced on###monday'
p10
aS'bank of america--ex bank of america executive###gets in###prison'
p11
aS'bank of america--former bank of america corp executive###was sentenced to###2 years and two months'
p12
atRp13
ag2
((lp14
S'google--google inc###to remove###an anti-islamic film'
p15
aS'google--google inc###should not have to remove an anti-islamic film from###its youtube website'
p16
aS'google--google inc###should not have to remove###an anti-islamic film'
p17
atRp18
ag2
((lp19
S'cme--cme group inc###said on###monday'
p20
atRp21
ag2
((lp22
S'tesoro--refiner tesoro###has ordered###new crude oil railcars'
p23
aS'tesoro--refiner tesoro###has ordered new crude oil railcars with###features'
p24
atRp25
ag2
((lp26
S'google--appeals court###ruled###favor of google inc'
p27
aS'google--u .s###be appeals court rules for###google'
p28
aS'google--appeals court###ruled in###favor of google inc'
p29
atRp30
ag2
((lp31
S'exelon--exelon###said on###monday'
p32
aS'exelon--exelon###agree to maryland###merger conditions'
p33
atRp34
ag2
((lp35
S'apple--apple###rises after###icahn comments'
p36
atRp37
ag2
((lp38
S'apple--apple###rises after###icahn comments'
p39
atRp40
ag2
((lp41
S'urban outfitters--urban outfitters###misses###estimates'
p42
atRp43
ag2
((lp44
S'google--google inc###to remove###an anti-islamic film'
p45
aS'google--google inc###should not have to remove an anti-islamic film from###its youtube website'
p46
aS'google--google inc###should not have to remove###an anti-islamic film'
p47
atRp48
ag2
((lp49
S'conocophillips--18 conocophillips###may expects to maintain###capital expenditure'
p50
atRp51
ag2
((lp52
S'apple--apple inc###remains "dramatically###undervalued'
p53
atRp54
ag2
((lp55
S'apple--industrial average helped by a rally in apple as well as tepid economic data###to raise###interest rates'
p56
aS'apple--industrial average helped by a rally in apple as well as tepid economic data###may wait to raise###interest rates'
p57
atRp58
ag2
((lp59
S'altera--altera###resume###deal talks'
p60
atRp61
ag2
((lp62
S'apple--apple###rises after###icahn comments'
p63
atRp64
ag2
((lp65
S'waters--iranian ship###carries aid into###waters'
p66
aS'waters--iranian ship###carries activists into###waters'
p67
atRp68
ag2
((lp69
S'lockheed martin--18 six u .s . f-35b fighter jets built by lockheed martin corp###may landed###defense official'
p70
aS'lockheed martin--18 six u .s . f-35b fighter jets###be built by###lockheed martin corp'
p71
aS'lockheed martin--18 six u .s . f-35b fighter jets built by lockheed martin corp###may landed defense official on###the uss'
p72
atRp73
ag2
((lp74
S'bank of america--bancorp and bank of america corp###won###a dismissal of claims'
p75
atRp76
ag2
((lp77
S'urban outfitters--apparel retailer urban outfitters inc###reported###lower-than-expected comparable-store sales hurt by weak demand for the urban outfitters and anthropologie group brands'
p78
atRp79
ag2
((lp80
S'principal--objections###be repeated on###the principal'
p81
atRp82
ag2
((lp83
S'edison international--monday revived claims###be made by###edison international employees who accused the utility'
p84
atRp85
ag2
((lp86
S'goldman sachs--goldman sachs###has cut###its long-term crude oil price forecasts'
p87
atRp88
ag2
((lp89
S'bank of america--bancorp and bank of america corp###won###a dismissal of claims'
p90
atRp91
ag2
((lp92
S'abbott--texas governor greg abbott###signed###a bill'
p93
aS'abbott--texas governor greg abbott###signed a bill into###law that prohibits cities and towns from banning an oil drilling practice'
p94
atRp95
ag2
((lp96
S'exelon--exelon###agree to maryland###merger conditions'
p97
aS'exelon--exelon corp ( exc. n###said on###monday'
p98
atRp99
a.