(lp1
c__builtin__
set
p2
((lp3
S'raytheon--u .s###dismisses###raytheon suit'
p4
aS'raytheon--judge###dismisses###raytheon suit'
p5
atRp6
ag2
((lp7
S'raytheon--it###got for###a new long-range radar won by raytheon but challenged by rivals'
p8
aS'raytheon--a new long-range radar###be won by###raytheon'
p9
aS'raytheon--a lawsuit###be filed by###raytheon co'
p10
atRp11
ag2
((lp12
S'general motors--12 general motors co###may will recall###about 522,000 vehicles'
p13
atRp14
ag2
((lp15
S'pall--water and air filter maker pall corp pll .n###is in###the final stages of an auction'
p16
atRp17
ag2
((lp18
S'morgan stanley--castleton###joins oil trade titans with###morgan stanley deal'
p19
atRp20
ag2
((lp21
S'facebook--facebook###may sue judge###lawyers'
p22
aS'facebook--facebook###may sue lawyers###judge'
p23
aS"facebook--facebook###may sue lawyers over###fugitive 's lawsuit n.y"
p24
aS"facebook--facebook###may sue judge over###fugitive 's lawsuit n.y"
p25
atRp26
ag2
((lp27
S'facebook--facebook inc###may pursue###a lawsuit'
p28
atRp29
ag2
((lp30
S'raytheon--u .s###dismisses###raytheon suit'
p31
aS'raytheon--judge###dismisses###raytheon suit'
p32
atRp33
ag2
((lp34
S'raytheon--it###got for###a new long-range radar won by raytheon but challenged by rivals'
p35
aS'raytheon--a new long-range radar###be won by###raytheon'
p36
aS'raytheon--a lawsuit###be filed by###raytheon co'
p37
atRp38
ag2
((lp39
S'american airlines--american airlines###to begin merging###reservations platforms'
p40
atRp41
ag2
((lp42
S"google--internet search company google inc 's self-driving cars###have been involved in###11 accidents"
p43
atRp44
ag2
((lp45
S'principal--imf###says###greece made principal payment'
p46
atRp47
ag2
((lp48
S'principal--greece###had made###its latest principal payment'
p49
atRp50
ag2
((lp51
S"conocophillips--conocophillips ' shareholders###voted for###a non-binding resolution allowing minority shareholders to nominate directors to its board"
p52
atRp53
ag2
((lp54
S"apple--12 apple inc###may is in###talks with chinese banks and alibaba group holding ltd on launching the firm 's mobile payments system in china , chief executive tim cook"
p55
atRp56
ag2
((lp57
S'principal--nelson peltz , activist investor and principal of hedge fund trian fund management###told cnbc that###the prospects'
p58
aS'principal--nelson peltz , activist investor and principal of hedge fund trian fund management###told###cnbc'
p59
atRp60
ag2
((lp61
S"ace--wechat###is###tencent 's ace"
p62
atRp63
ag2
((lp64
S'computer science--services provider computer science corp###sued###the former chief executive of a company'
p65
atRp66
ag2
((lp67
S"noble--noble energy 's $ 2 billion rosetta deal###reopens u in###.s . shale oil m&a"
p68
atRp69
ag2
((lp70
S'noble--noble energy inc###said on###monday'
p71
atRp72
ag2
((lp73
S'principal--objections###be repeated on###the principal'
p74
aS'principal--the creditor group###repeated objections to any writedown on###the principal'
p75
atRp76
ag2
((lp77
S'goldman sachs--goldman sachs inc###has been ordered to pay $ 80 million , plus interest for###breaches associated with the sale of mortgage-linked securities'
p78
aS'goldman sachs--goldman sachs inc###has been ordered to pay $ 80 million , plus interest to###the national australia bank'
p79
atRp80
ag2
((lp81
S"morgan stanley--castleton commodities###has agreed to buy###morgan stanley 's physical oil business"
p82
atRp83
a.