(lp1
c__builtin__
set
p2
((lp3
S'duke--duke energy corp###pleaded guilty on###thursday'
p4
atRp5
ag2
((lp6
S'citigroup--credit cards###bolster###citigroup'
p7
aS'citigroup--citigroup###focuses on###growth areas'
p8
atRp9
ag2
((lp10
S'cme--his agency###has directed###exchange market operator cme group inc'
p11
aS'cme--cme###directed###enforcement'
p12
atRp13
ag2
((lp14
S'duke--duke energy corp###pleaded guilty on###thursday'
p15
atRp16
ag2
((lp17
S'waters--shell oil rig###arrives in###seattle waters'
p18
atRp19
ag2
((lp20
S'goldman sachs--14 goldman sachs and credit suisse###may sold###$ 388 million loans backing the merger between fragrance sample providers bioplan and arcade marketing at a loss this week on their third trip to the market'
p21
atRp22
ag2
((lp23
S'nvidia--nvidia###wants to leap to###self driving cars'
p24
aS'nvidia--nvidia###to leap to###self driving cars'
p25
aS'nvidia--nvidia###to leap from###video games'
p26
aS'nvidia--nvidia###wants to leap from###video games'
p27
atRp28
ag2
((lp29
S'nvidia--car companies###use###nvidia \'s " supercomputer'
p30
atRp31
ag2
((lp32
S"general motors--a lawsuit###claiming that###general motors co ( gm .n ) was required to pay $ 450 million to cover medical benefits for an affiliate 's retirees"
p33
atRp34
ag2
((lp35
S"patterson--the central bank 's deputy governor lynn patterson###said on###thursday"
p36
aS"patterson--the central bank 's deputy governor lynn patterson###said in###thursday"
p37
atRp38
ag2
((lp39
S'travelers--thousands of travelers###rushed on###wednesday'
p40
aS'travelers--travelers###be stranded in###philadelphia'
p41
aS'travelers--travelers###be stranded by###the deadly amtrak derailment'
p42
atRp43
ag2
((lp44
S'symantec--symantec revenue###misses###street'
p45
aS'symantec--symantec revenue###misses street on###strong dollar'
p46
atRp47
ag2
((lp48
S"symantec--antivirus and security software maker symantec corp 's quarterly profit and revenue missed wall street estimates###be hurt by###a strong dollar and lower demand"
p49
atRp50
ag2
((lp51
S'apache--apache shareholders###approve###proxy access proposal'
p52
atRp53
ag2
((lp54
S'symantec--symantec revenue###misses###street'
p55
aS'symantec--symantec revenue###misses street on###strong dollar'
p56
atRp57
ag2
((lp58
S"symantec--antivirus and security software maker symantec corp 's quarterly profit and revenue missed wall street estimates###be hurt by###a strong dollar and lower demand"
p59
atRp60
ag2
((lp61
S'marathon petroleum--workers###be striking at###marathon petroleum'
p62
atRp63
ag2
((lp64
S'facebook--facebook###raises###minimum pay'
p65
atRp66
ag2
((lp67
S'facebook--facebook###raised wages amid###rising tension'
p68
aS'facebook--facebook###raised wages to###a minimum of $ 15'
p69
aS'facebook--facebook###raised wages for###its contract workers'
p70
aS'facebook--facebook###raised###wages'
p71
atRp72
ag2
((lp73
S'symantec--symantec quarterly revenue###falls###6.6 pct'
p74
atRp75
ag2
((lp76
S'duke--duke energy corp###pleaded guilty on###thursday'
p77
atRp78
ag2
((lp79
S'facebook--facebook###raises###minimum pay'
p80
atRp81
ag2
((lp82
S'applied materials--applied materials revenue###rises###3.8 pct'
p83
atRp84
ag2
((lp85
S'applied materials--applied materials inc###reported###a 3.8 percent rise'
p86
atRp87
ag2
((lp88
S'facebook--online shoppers###primarily relying on###facebook'
p89
atRp90
ag2
((lp91
S'facebook--facebook###is the primary information channel for###thai online shoppers'
p92
aS'facebook--facebook###is###the primary information channel the bangkok post reported , citing a poll'
p93
atRp94
ag2
((lp95
S'facebook--facebook###raises###minimum pay'
p96
atRp97
ag2
((lp98
S'facebook--13 facebook###may raised###wages'
p99
aS'facebook--13 facebook###may raised wages amid###rising tension'
p100
aS'facebook--13 facebook###may raised wages to###a minimum of $ 15'
p101
aS'facebook--13 facebook###may raised wages for###its contract workers'
p102
atRp103
ag2
((lp104
S"cisco--cisco systems inc 's ( csco.o ) quarterly profit###edged past###market estimates"
p105
aS"cisco--cisco systems inc 's ( csco.o ) quarterly profit###edged as###demand"
p106
atRp107
ag2
((lp108
S'waters--shell oil rig###arrives in###seattle waters'
p109
atRp110
ag2
((lp111
S'cbs--he###will not attend###the cbs shareholder meeting'
p112
atRp113
a.