c__builtin__
set
p1
((lp2
S'ni--ni###said by###the media'
p3
aS"k--k###launched under###issuer 's emtn program"
p4
aS'ads--ads###appear for###products that look like genuine articles as well as clear knock-offs'
p5
aS'ni--ni###said during###a rare visit'
p6
aS'ni--ni###said in###an interview'
p7
aS'dow--dow###pare###safe-haven bids'
p8
atRp9
.c__builtin__
set
p1
((lp2
S'eaton--the eaton vance fund###had###about 18 percent of its portfolio invested in equities on march 31'
p3
aS"target--its price forecasts###be even cut as###slumping oil costs and soft consumption ground inflation to a halt , pushing it further away from the bank 's ambitious 2 percent target"
p4
aS'southern--patchuban angchotipan###be a former official in###the provincial government of the southern satun province'
p5
aS'target--a naval mission to target gangs smuggling migrants from libya###began to unravel in###a row'
p6
aS'u.s. dollar--kaisa group###also became###the first chinese property developer to fail to pay a coupon on its u.s. dollar bonds and internet company cloud live tech group ( 002306.sz ) failed to repay nearly $ 40 million to bondholders'
p7
aS'nasdaq--its class###be a common stock on###the nasdaq'
p8
aS"apple--apple 's shares###rose###1.10 percent"
p9
aS'intel--intel###resume###deal talks'
p10
aS'goldman sachs--brent crude###was off 53 cents after###goldman sachs analysts'
p11
aS'u.s. bancorp--u.s. bancorp and bank of america corp###won###a dismissal of claims'
p12
aS'tesoro--tesoro corp###be refiner of###u.s.'
p13
aS'amazon.com--consumers###buy goods to###each other much)[enabler=like they do on the marketplace run by u.s.-based ebay inc ( ebay. o ) , and tmall , an online shopping mall that vendors use to sell their products , similar to amazon.com inc ( amzn.o '
p14
aS'bank of new york mellon--forrest###said in###bank of new york mellon corp'
p15
aS'urban outfitters--urban outfitters inc###be retailer for###apparel'
p16
aS'target--a naval mission to target gangs smuggling migrants from libya###began to unravel over###national quotas'
p17
aS'verizon communications--fdi inflows###reached $ 128 billion in###last year)[enabler=while net u.s. inflows fell by two-thirds to $ 86 billion , dragged down by a deal between u.s. firm verizon communications inc ( vz.n ) and its british partner vodafone ( vod.l '
p18
aS'nasdaq--the nasdaq composite###was recording###111 new highs and 39 new lows'
p19
aS"exelon--exelon###agree to###maryland 's merger conditions"
p20
aS'target--china###will miss###its 7 percent target'
p21
aS'nasdaq--the nasdaq composite###closed ahead 6.47 points , 0.3 percent , to###2,129.2'
p22
aS'conocophillips--conocophillips###is also preparing to sell###noncore oil and gas producing acreage'
p23
aS'tesoro--u.s. refiner tesoro corp###has ordered new crude oil railcars with###features'
p24
aS'phillips 66--phillips 66###confirmed to###reuters'
p25
aS'endo international--endo international###fell 5.56 percent after###the generic drugmaker'
p26
aS'southern--a saudi-led coalition###resumed air strikes on the iranian-allied houthi group in###the southern yemeni city of aden'
p27
aS'target--some investors###see the company as###a potential takeover target'
p28
aS'u.s. dollar--the euro which rose nearly 9 percent in value against the u.s. dollar in the course of a month###pulled back more than 1 percent###its worst daily performance'
p29
aS'gap--the output gap###has could rise above###the average'
p30
aS'tesoro--tesoro###knew###the federal standards'
p31
aS'urban outfitters--urban outfitters inc###rose in###11 quarters'
p32
aS"apple--apple 's shares###rose 1.39 percent after###billionaire investor carl icahn"
p33
aS'exelon--exelon###has###some 7.8 million customers'
p34
aS'target--the firm###to meet###its fundraising target'
p35
aS'u.s. dollar--the euro which rose nearly 9 percent in value against the u.s. dollar in the course of a month###pulled back close to one percent###its worst daily performance'
p36
aS'exelon--it###would approve###the deal which would create the biggest u.s. power generator , if exelon would agree to 46 conditions'
p37
aS'target--creditors###should accept###a lower primary surplus target'
p38
aS'bank of america--u.s. bancorp and bank of america corp###won###a dismissal of claims'
p39
aS'urban outfitters--tedford marlow###be chief executive of the of###urban outfitters division'
p40
aS'exelon--exelon###struck###a deal'
p41
aS'citigroup--pricing###is expected later today through###bookrunners bb securities , baml , citigroup , itau bba and santander'
p42
aS'urban outfitters--urban outfitters###said###inventories'
p43
aS'waters--the thai navy towed the boat out of thai waters , and reuters reporters###intercepted once by###the malaysians'
p44
aS'tesoro--tesoro###to replace###the last of its older cars'
p45
aS'waters--iranian ship###carries activists into###waters'
p46
aS'nasdaq--shares of urban outfitters###closed in###the nasdaq'
p47
aS'endo international--endo international###fell###4 percent'
p48
aS'urban outfitters--shares of urban outfitters###closed on###the nasdaq'
p49
aS'coca-cola--buffett###would buy###coca-cola six-packs'
p50
aS"southern--warplanes###struck the houthi-held presidential palace in###yemen 's southern port of aden"
p51
aS'nasdaq--the nasdaq composite index###was up 28.97 points , 0.57 percent , at###5,077.26'
p52
aS'endo international--it###to sell the generics drugmaker to###endo international plc'
p53
aS"tesoro--tesoro 's cars###also have###test pressure specifications of 200 pounds"
p54
aS'nasdaq--the nasdaq composite###added 30.15 points , or 0.6 percent , to end at###5,078.44'
p55
aS'waters--boatloads of bangladeshi migrants###have arrived in###the waters of indonesia'
p56
aS"bank of america--phillip murphy###be the former managing director of###bank of america 's municipal derivatives products desk"
p57
aS'nasdaq--the nasdaq composite###was up 19.66 points , 0.39 percent , at###5,067.95'
p58
aS'apple--icahn###says###apple shares'
p59
aS'urban outfitters--urban outfitters###reports###lower-than-expected same-store sales'
p60
aS"apple--apple 's shares###rose###1.39 percent"
p61
aS"southern--explosions###could be heard near###the southern city 's airport"
p62
aS'nasdaq--the nasdaq composite###recorded###111 new highs and 39 new lows'
p63
aS'urban outfitters--urban outfitters inc###rose at###the slowest pace'
p64
aS'amazon.com--consumers###buy###goods)[enabler=like they do on the marketplace run by u.s.-based ebay inc ( ebay. o ) , and tmall , an online shopping mall that vendors use to sell their products , similar to amazon.com inc ( amzn.o '
p65
aS'urban outfitters--urban outfitters###misses###estimates'
p66
aS'conocophillips--conocophillips###has slashed capital spending is like###other exploration and production companies'
p67
aS"apple--apple 's rise###was###the biggest factor"
p68
aS'endo international--tpg###to begin###an ipo investor roadshow)[enabler=before it agreed to sell the generics drugmaker to endo international plc ( endp.o '
p69
aS'intel--intel and altera###could not immediately be reached for###comment'
p70
aS'nasdaq--the nasdaq composite###was up 13.95 points , 0.28 percent , at###5,062.24'
p71
aS'endo international--the generics drugmaker###to sell to be###endo international plc'
p72
aS"exelon--objections###be drawing from###environmentalists concerned about exelon 's nuclear plants"
p73
aS'u.s. dollar--the u.s. dollar###made broad-based gains after###several weeks of selling'
p74
aS'nasdaq--the nasdaq composite###added 29.18 points , or 0.58 percent , to###5,077.47'
p75
aS'general motors--the lingering threat of union action###have prompted with###general motors'
p76
aS'exelon--exelon###spend $ 43.2 million for###a total of $ 109.2 million'
p77
aS'apple--apple inc###remains "dramatically###undervalued'
p78
aS'tesoro--tesoro###is talking on###outfitting crude railcars'
p79
aS'phillips 66--tesoro and phillips 66 aim###to use###their newest cars'
p80
aS'waters--the boat###was in###waters'
p81
aS'target--the european union###agreed###a naval mission to target gangs smuggling migrants from libya'
p82
aS'target--a target of opportunity###be told a news conference in###seoul'
p83
aS'merck--forces###be joined with###u.s. drugmaker merck'
p84
aS'general motors--general motors co###reported in###comparison'
p85
aS'nasdaq--the nasdaq composite###added###29.18 points , or 0.58 percent'
p86
aS"southern--international firms###operate in###iraq 's southern oilfields"
p87
aS'citigroup--bb securities , bank of america merrill lynch , citigroup , itau bba and santander###are the bookrunners on###the transaction'
p88
aS"gap--finance minister nhlanhla nene###reiterated###the government 's willingness to sell a minority stake in eskom to plug the utility 's 200 billion rand ( $ 17 billion ) funding gap"
p89
aS'merck--it###joined forces with###u.s. drugmaker merck'
p90
aS'conocophillips--conocophillips###has slashed capital spending is in###response'
p91
aS'u.s. dollar--the u.s. dollar###made broad-based gains recovering###ground'
p92
aS"apple--apple 's shares###rose 1.1 percent after###billionaire investor carl icahn"
p93
aS'nasdaq--the nasdaq composite###gained###6.33 points , or 0.3 percent'
p94
aS'u.s. dollar--the u.s. dollar###made broad-based gains on monday recovering some ground after###several weeks of selling'
p95
aS'tesoro--tesoro###knew the federal standards like###other oil-by-rail players'
p96
aS'tesoro--tesoro corp###be refiner for###u.s.'
p97
aS'exelon--exelon###generates of###its power'
p98
aS'at&t--at&t###provided the biggest boost to###the index'
p99
aS'nasdaq--the nasdaq composite###added###30.15 points , or 0.6 percent'
p100
aS'urban outfitters--apparel retailer urban outfitters inc###reported###lower-than-expected comparable-store sales hurt by weak demand for the urban outfitters and anthropologie group brands'
p101
aS'apple--apple###rises after###icahn comments'
p102
aS'at&t--at&t###provided###the biggest boost'
p103
aS'intel--altera###rallies on###intel m&a report'
p104
aS'bank of america--may 18 u.s. bancorp and bank of america corp###won###a dismissal of claims'
p105
aS'tesoro--tesoro###is talking with###union tank car'
p106
aS'southern--air strikes###be resumed in###the southern yemeni city of aden'
p107
aS'exelon--exelon###generates###55 percent of its power'
p108
aS'bank of america--former bank of america###was sentenced on###monday'
p109
aS"apple--apple 's shares###rose###1.1 percent"
p110
aS'phillips 66--tesoro and phillips 66 aim###to use their newest cars in###crude trains'
p111
aS"tesoro--tesoro###is###n't the only refiner that did n't wait for word from the u.s."
p112
aS'bank of america--bank of america###reached a $ 137.3 million deal in###2010'
p113
aS'u.s. dollar--nearly 9 percent###be rose against###the u.s. dollar'
p114
aS'nasdaq--shares of urban outfitters###closed on###the nasdaq'
p115
aS'ebay--consumers###buy goods to###each other much)[enabler=like they do on the marketplace run by u.s.-based ebay inc ( ebay. o ) , and tmall , an online shopping mall that vendors use to sell their products , similar to amazon.com inc ( amzn.o '
p116
aS'endo international--endo international###fell###5.56 percent'
p117
aS'gap--south32###fills###a gap'
p118
aS'nasdaq--the nasdaq composite###added 30.15 points , or 0.6 percent , to###5,078.44'
p119
aS'waters--the thai navy towed the boat out of thai waters , and reuters reporters###intercepted once of###three occasions'
p120
aS'exelon--exelon corp###said on###monday'
p121
aS'tesoro--tesoro###building###crude railcars'
p122
aS'conocophillips--conocophillips###to sell###noncore oil and gas producing acreage'
p123
aS"waters--the eu 's naval mission###will not have###the mandate to intervene in libyan territorial waters to seize vessels"
p124
aS'apple--alibaba###has so far signed###than 1,300 memoranda understanding on cooperation with brands , including microsoft ( msft.o ) , apple appl.o and louis vuitton ( lvmh.pa ) , to fight fakes , ni said'
p125
aS'tesoro--tesoro###needed to replace###the last of its older cars'
p126
aS'tesoro--tesoro and phillips 66 aim###to use###their newest cars'
p127
aS'tesoro--tesoro###is talking to add enhanced brakes before###the 2021 deadline'
p128
aS'goldman sachs--goldman sachs###has cut###its long-term crude oil price forecasts'
p129
aS'southern--a lawsuit###be filed against###edison subsidiary southern california edison company'
p130
aS'endo international--endo international###fell 4 percent after###the generic drugmaker'
p131
aS'tesoro--neither tesoro###are equipped with###specialized brakes'
p132
aS'target--the target price###be hiked from###230'
p133
aS'waters--iranian ship###carries aid into###waters'
p134
aS'u.s. bancorp--may 18 u.s. bancorp and bank of america corp###won###a dismissal of claims'
p135
aS"coca-cola--coca-cola six-packs###would be buy at###his grandfather 's grocery store"
p136
aS'tesoro--u.s. refiner tesoro corp###has ordered###new crude oil railcars'
p137
aS'exelon--exelon###agreed for###example'
p138
aS'conocophillips--conocophillips###is also preparing to sell gas producing acreage in###the latest sign'
p139
aS'conocophillips--conocophillips###says to maintain###capex'
p140
aS'target--a naval mission to target gangs smuggling migrants from libya###to unravel over###national quotas'
p141
aS'southern--southern california edison company###be subsidiary of###edison'
p142
aS'goldman sachs--brent crude###was off 42 cents after###goldman sachs analysts'
p143
aS'target--the regulatory filing###had###a nominal fundraising target of $ 100 million'
p144
aS"southern--the houthi-held presidential palace###be struck in###yemen 's southern port of aden"
p145
aS'target--kerry###told a news conference###a target of opportunity'
p146
aS'target--a naval mission to target gangs smuggling migrants from libya###to unravel in###a row'
p147
aS'target--a lower primary surplus target###should be accept in###return for tax reform and a hike'
p148
aS'target--the target price###be hiked to###280 euros'
p149
aS'endo international--endo international###fell###5.37 percent'
p150
aS'endo international--it###agreed to sell the generics drugmaker to###endo international plc'
p151
aS'southern--a vessel###docked in###the southern city of aden'
p152
aS'conocophillips--may 18 conocophillips###expects to maintain###capital expenditure'
p153
aS'u.s. dollar--the u.s. dollar###made###broad-based gains'
p154
aS'southern--glenn tibble and other employees###filed a lawsuit against###edison subsidiary southern california edison company'
p155
aS"apple--apple 's ( aapl.o ) shares###rose###1.10 percent"
p156
aS'ebay--they###do on###the marketplace run by u.s.-based ebay inc ( ebay. o ) , and tmall , an online shopping mall that vendors use to sell their products , similar to amazon.com inc ( amzn.o )'
p157
aS'exelon--exelon###struck a deal with###delaware'
p158
aS'ebay--the marketplace###be run by###u.s.-based ebay inc'
p159
aS'nasdaq--the nasdaq composite###recorded###96 new highs and 37 new lows'
p160
aS"target--it###even cut its price forecasts as###slumping oil costs and soft consumption ground inflation to a halt , pushing it further away from the bank 's ambitious 2 percent target"
p161
aS'exelon--exelon###spend $ 43.2 million for###energy efficiency programs'
p162
aS'microsoft--alibaba###has so far signed###than 1,300 memoranda understanding on cooperation with brands , including microsoft ( msft.o ) , apple appl.o and louis vuitton ( lvmh.pa ) , to fight fakes , ni said'
p163
aS'bank of america--the investigation###resulted in###five banks agreeing to pay $ 743 million to settle with federal and state authorities , including bank of america ,'
p164
aS"exelon--environmentalists###be concerned about###exelon 's nuclear plants"
p165
aS'target--analysts###hiked###the target price'
p166
aS'apple--detail helped by a rally in apple as well as tepid economic data###may wait to raise###interest rates'
p167
aS'nasdaq--the nasdaq composite###gained 6.58 points , or 0.31 percent , to###2,129.31'
p168
aS"ca--park###said with###a weak support base the current leadership ca n't push ahead with such changes"
p169
aS'urban outfitters--shares of urban outfitters###closed on###monday'
p170
aS"exelon--exelon###would preserve###pepco 's plans"
p171
aS'urban outfitters--urban outfitters inc###be retailer of###apparel'
p172
aS'amazon.com--they###do on###the marketplace run by u.s.-based ebay inc ( ebay. o ) , and tmall , an online shopping mall that vendors use to sell their products , similar to amazon.com inc ( amzn.o )'
p173
aS'tesoro--tesoro and phillips 66 aim###to use their newest cars in###crude trains'
p174
aS'bank of america--former bank of america###was sentenced to###2 years and two months'
p175
aS'bank of america--bb securities , bank of america merrill lynch , citigroup , itau bba and santander###are the bookrunners on###the transaction'
p176
aS'edison international--the u.s. supreme court###revived###claims made by edison international employees'
p177
aS'ebay--consumers###buy###goods)[enabler=like they do on the marketplace run by u.s.-based ebay inc ( ebay. o ) , and tmall , an online shopping mall that vendors use to sell their products , similar to amazon.com inc ( amzn.o '
p178
aS"tesoro--tesoro 's head of strategy###told###reuters"
p179
aS'tesoro--tesoro###worked with###its builder'
p180
aS'urban outfitters--shares of urban outfitters###closed in###the nasdaq'
p181
aS'endo international--endo international###fell 5.37 percent after###the generic drugmaker'
p182
aS'conocophillips--conocophillips###has slashed is###capital spending'
p183
aS'endo international--endo international###to buy###par pharmaceuticals'
p184
aS'u.s. dollar--the u.s. dollar###made broad-based gains on###monday'
p185
aS'american airlines--strong u.s. domestic demand###to benefit###american airlines group inc'
p186
aS'u.s. dollar--the euro###rose nearly 9 percent against###the u.s. dollar'
p187
aS'blackrock--blair nicholas###be a lawyer for###the blackrock , pimco and tiaa-cref plaintiffs'
p188
aS'u.s. dollar--the u.s. dollar###made broad-based gains on monday recovering###some ground'
p189
aS'edison international--claims###be made by###edison international employees'
p190
aS'intel--intel###rose###1.24 percent'
p191
aS'nasdaq--the nasdaq composite###gained 6.33 points , or 0.3 percent , to###2,129.06'
p192
aS"apple--apple 's rise###was the biggest factor for###the rise"
p193
aS'apple--detail helped by a rally in apple as well as tepid economic data###to raise###interest rates'
p194
aS'exelon--exelon###generates 55 percent of its power from###nuclear plants'
p195
aS'perrigo--mylan###is###itself trying to buy perrigo co plc ( prgo.n ) ,'
p196
aS'nasdaq--the nasdaq composite###gained###6.58 points , or 0.31 percent'
p197
atRp198
.