c__builtin__
set
p1
((lp2
S'ge--ge###speeds up###finance sales timing , confident'
p3
aS'hp--hp###took about two-thirds of its revenue in###the year'
p4
aS'ibm--ibm###have been touted as###potential acquirers of salesforce valued at about $ 45.6 billion'
p5
aS'c--c###has made###huge gains'
p6
aS'ge--ge###is seen like###other suppliers'
p7
aS'ge--ge###previously had forecast###a drop of as much as 5 percent'
p8
aS'cvs--cvs###nears###deal to buy omnicare for more than $ 12 billion'
p9
aS'ge--ge###would consider selling intellectual property around###a product'
p10
aS'abt--abt###joined from###jpmorgan'
p11
aS'kim--kim###joined###new york life'
p12
aS'kim--kim###joined new york life in###2008'
p13
aS'c--c###has made huge gains in###recent years'
p14
atRp15
.c__builtin__
set
p1
((lp2
S'charles schwab--randy frederick###derivatives for###charles schwab'
p3
aS'state street--state street global advisors###to sell###its 49 percent stake'
p4
aS"general electric--( reuters ) - general electric co 's chief###gave###a faster timeline"
p5
aS"monsanto--raised tensions###be raising with###farmers who object to monsanto 's demand"
p6
aS'oracle--mcdermott###be pressed on###the possibility of arch-rival oracle buying salesforce'
p7
aS'microsoft--an app###to move to be###microsoft'
p8
aS'nasdaq--the nasdaq composite###declined losing###1.02 points , or 0.02 percent'
p9
aS'wells fargo--j.p. morgan , bofa merrill lynch and wells fargo securities###were lead underwriters for###the offering'
p10
aS'state street--state street global advisors###is also looking to sell###its 49 percent stake'
p11
aS'citigroup--bnp paribas , bank of america merrill lynch , citigroup , deutsche bank , morgan stanley and santander gbm###to schedule###a series of fixed-income investor meetings'
p12
aS'nasdaq--the nasdaq composite###was down 0.23 points , 0.01 percent , to###2,127.6'
p13
aS'american airlines--american airlines group inc###said that###hundreds of travelers'
p14
aS'target--agreements pushing inflation beyond a target###be combined with###weakness'
p15
aS'apple--apple###boosted its repurchase program under###pressure'
p16
aS'time warner--time warner cable###is a much bigger bite would for###altice'
p17
aS'wal-mart stores--wal-mart stores inc###are boosting their minimum wages over###time'
p18
aS"monsanto--farmers###object to###monsanto 's demand"
p19
aS'monsanto--syngenta###is developing crop protection products that use naturally-occurring microbes like###monsanto'
p20
aS'netapp--netapp###to boost###growth'
p21
aS'netapp--data storage equipment maker netapp inc###is cutting###about 500 jobs'
p22
aS"southern--about 80 percent of mexico 's current oil production###comes from###shallow water deposits clustered around the southern rim of the gulf of mexico"
p23
aS'state street--bart wakabayashi###be head of forex at###state street'
p24
aS'microsoft--adam tratt###be executive for###microsoft'
p25
aS'microsoft--microsoft corp , oracle corp , ibm and sap###have been touted as###potential acquirers of salesforce valued at about $ 45.6 billion'
p26
aS'monsanto--monsanto president brett begemann###said of###investors'
p27
aS'boeing--john dern###be spokesman of###boeing'
p28
aS'target--target###said###sales'
p29
aS'apple--apple###cool to###microsoft overtures'
p30
aS'wells fargo--larry biegelsen###be analyst of###wells fargo'
p31
aS"target--investors###were demanding###a yield that was well above the province 's target"
p32
aS'apple--it###accept###tweaked apple and android apps'
p33
aS'bank of america--last november###slapped penalties totalling $ 4.3 billion rigging including###hsbc , ubs and bank of america'
p34
aS'nasdaq--the nasdaq composite###gained 5.05 points , or 0.24 percent , to###2,132.88'
p35
aS'netapp--netapp###to cut###500 jobs'
p36
aS'jpmorgan chase--the company which lists wells fargo & co and jpmorgan chase & co among its largest clients###also provides information on property valuation and collateral risk to###originators and mortgage servicers'
p37
aS'southwest airlines--southwest airlines co###plummeted more than 9 percent in###a wider selloff of u.s. airline stocks'
p38
aS'equifax--equifax , experian and trans union###will also pay $ 6 million to###the states'
p39
aS'wells fargo--wells fargo analyst larry biegelsen###forecast daratumumab sales reaching $ 1.3 billion by###2019'
p40
aS'boeing--boeing###specialize in###the larger business jets popular'
p41
aS'monsanto--the money###would ultimately end up with###monsanto'
p42
aS'netapp--netapp###has been trying to boost###growth'
p43
aS'nasdaq--the nasdaq composite###was recording###89 new highs and 50 new lows'
p44
aS'wells fargo--the company which lists wells fargo & co and jpmorgan chase & co among its largest clients###helps in###mortgage servicing'
p45
aS'jpmorgan chase--the asset management arm of jpmorgan chase###appointed alexis jarnoux as###sales manager'
p46
aS'sysco--sysco corp###be distributor of###food'
p47
aS"apple--apple 's new language###may soon eclipse###the current one"
p48
aS'nasdaq--the stock###closed up $ 1.81 to $ 42.73 on###the nasdaq'
p49
aS"nasdaq--viacom 's shares###closed up 0.5 percent on###the nasdaq"
p50
aS'cigna--he###had had also served as###president of cigna retirement'
p51
aS'wells fargo--the company which lists wells fargo & co and jpmorgan chase & co among its largest clients###also provides information on property valuation and collateral risk to###originators and mortgage servicers'
p52
aS'bank of america--the office of the comptroller of the currency###slapped penalties totalling $ 4.3 billion rigging including###hsbc , ubs and bank of america'
p53
aS'goldman sachs--vtb capital the russian bank###has hired atanas djumaliev from###goldman sachs'
p54
aS'citigroup--citigroup###lost###0.79 percent'
p55
aS'american airlines--american airlines group inc president scott kirby###said during###a transportation conference'
p56
aS'goldman sachs--goldman sachs###is looking to bundle###debt backing'
p57
aS'microsoft--failure to attract the apps###would not be fatal for###microsoft'
p58
aS'boeing--john dern###be spokesman for###boeing'
p59
aS'time warner--french telecommunications group altice sa###has held###talks to buy time warner cable inc'
p60
aS'southern--derb carter###be an attorney for###the southern environmental law center'
p61
aS'microsoft--two###are made by###microsoft'
p62
aS'monsanto--seeds###be developed by###monsanto co.'
p63
aS'target--the target###be raised from###200'
p64
aS'sysco--food distributor sysco corp###said in###this month'
p65
aS'nasdaq--the nasdaq composite###added###1.71 points , or 0.03 percent'
p66
aS'citigroup--citigroup chief executive officer mike corbat###said in###a memo'
p67
aS'citigroup--citigroup , jpmorgan , rbs and barclays###pleaded guilty on###wednesday'
p68
aS'nasdaq--the nasdaq composite###gained###5.05 points , or 0.24 percent'
p69
aS'target--it###then may have to spend beyond###a previously announced investment target'
p70
aS'citigroup--u.s. banks jpmorgan chase and citigroup###will pay $ as###part of their guilty pleas'
p71
aS'jpmorgan chase--a u.s. regulator###has granted a series of waivers to###jpmorgan chase & co and four other major banks allowing them to continue their usual securities business'
p72
aS'bank of america--chase and bank of america###stopped in###this year'
p73
aS'microsoft--microsoft###said of###it'
p74
aS"hormel foods--hormel foods ' chief executive###cast###doubt"
p75
aS'wal-mart stores--great value###be brand of###wal-mart stores inc'
p76
aS"microsoft--it###'s an uphill battle for###microsoft"
p77
aS'activision blizzard--a delaware judge###approved###a $ 275 million shareholder settlement involving videogame maker activision blizzard inc'
p78
aS'hp--hp###took about two-thirds of its revenue in###the year'
p79
aS'monsanto--monsanto president brett begemann###said###a presentation'
p80
aS'nasdaq--the nasdaq composite###declined losing 1.02 points , or 0.02 percent , to###5,069.01'
p81
aS'monsanto--monsanto shares###were off###0.65 percent'
p82
aS'united technologies--john moran###be spokesman of###united technologies'
p83
aS'morgan stanley--morgan stanley , credit suisse , raymond james and rbc dominion securities###were among###the underwriters of the ipo'
p84
aS'equifax--equifax , experian and trans union###have credit data for###than 200 million americans'
p85
aS'whirlpool--whirlpool###pledged to invest in###italy'
p86
aS"home depot--home depot 's shares###had risen###about 47 percent"
p87
aS'oracle--microsoft corp , oracle corp , ibm and sap###have been touted as###potential acquirers of salesforce valued at about $ 45.6 billion'
p88
aS"bank of new york mellon--bank of new york mellon###won###regulatory approval to sell its stake in a joint venture with china 's western securities"
p89
aS'cvs health--cvs health###to buy###pharmacy service provider omnicare'
p90
aS'nasdaq--the nasdaq composite###added 1.71 points , or 0.03 percent , to###5,071.74'
p91
aS'gap--kiev###is also holding###talks to restructure sovereign and state-guaranteed debt to plug a $ 15 billion funding gap'
p92
aS'southern--shallow water deposits###be clustered around###the southern rim of the gulf of mexico'
p93
aS'target--inflation one or two years###ahead will be at###our 2 percent target'
p94
aS"nasdaq--achillion 's shares###closed in###the nasdaq"
p95
aS'apple--apple###boosted its repurchase program in###april'
p96
aS'monsanto--glyphosate chemistry and the related crop traits###contribute###roughly 70 percent of monsanto earnings'
p97
aS'gilead sciences--the hepatitis c market###be now dominated by###gilead sciences'
p98
aS'wells fargo--j.p. morgan , bofa merrill lynch and wells fargo securities###were###lead underwriters'
p99
aS"hormel foods--hormel foods ' chief executive###cast doubt for###as much as 4 percent increase"
p100
aS'bank of america--brazilian food company brf rated baa3/bbb/bbb-,###hired###bnp paribas , bank of america merrill lynch , citigroup , deutsche bank , morgan stanley and santander'
p101
aS'microsoft--candy crush interviews###found###just one planning to move an app from apple or android to microsoft ( msft.o )'
p102
aS'anthem--anthem inc###said in###this year'
p103
aS'nasdaq--1,369###fell on###the nasdaq'
p104
aS'monsanto--monsanto soy seed use###to be register in###crackdown'
p105
aS'waters--the saudi-led coalition###controls has###the waters'
p106
aS'microsoft--microsoft###said in###last month'
p107
aS'nasdaq--the nasdaq composite###was ahead 4.63 points , 0.22 percent , to###2,132.46'
p108
aS'bank of america--chase and bank of america###pulled its windows phone test app in###last year'
p109
aS'xl--xl group###acquired###underwriter antares'
p110
aS'wells fargo--wells fargo analyst larry biegelsen###forecast###daratumumab sales reaching $ 1.3 billion'
p111
aS'citigroup--u.s. banks jpmorgan chase and citigroup###will pay###550 million and $ 925 million'
p112
aS'microsoft--apple###cool to###microsoft overtures'
p113
aS'target--target###would have###the capacity to retire $ 2 billion or more of its shares this fiscal year'
p114
aS'microsoft--microsoft###does have###some loyal supporters'
p115
aS'target--target###said###first-quarter net earnings'
p116
aS'textron--textron###was similarly###positive'
p117
aS'whirlpool--whirlpool###has been in###government-brokered talks'
p118
aS'halliburton--halliburton###said in###september'
p119
aS"hormel foods--hormel foods ' chief executive###cast doubt on###federal forecasts"
p120
aS'microsoft--static business windows###is a big but static business for###microsoft'
p121
aS'time warner--time warner cable###is also being circled by###small rival charter communications'
p122
aS'amazon.com--it###would take###a different approach to online growth than amazon.com inc by using its large network of stores as distribution points'
p123
aS'target--kuroda###has will###no intention ditching the two-year timeframe or the base money target'
p124
aS'apple--apple###was###the biggest contributor'
p125
aS"citigroup--u.s. banks jpmorgan and citigroup and britain 's barclays and royal bank of scotland###to plead guilty to###criminal charges related to forex rigging"
p126
aS'nasdaq--the nasdaq composite###advanced###22.67 points , or 0.45 percent'
p127
aS'citigroup--brazilian food company brf rated baa3/bbb/bbb-,###hired###bnp paribas , bank of america merrill lynch , citigroup , deutsche bank , morgan stanley and santander'
p128
aS'time warner--altice###is very keen on###time warner cable'
p129
aS'target--he###believed of###target'
p130
aS'target--the target###be raised to###march 2017'
p131
aS'target--target###raised###the low end of its full-year earnings outlook'
p132
aS'goldman sachs--goldman sachs###to bundle###debt backing'
p133
aS'wells fargo--jp morgan , bofa merrill lynch and wells fargo securities###are among###the lead underwriters'
p134
aS"international business machines--replacing ibm servers###used after###international business machines corp 's $ 2.1 billion sale of its server division"
p135
aS'monsanto--monsanto###to be pay once for###the seeds'
p136
aS'microsoft--adam tratt###be executive of###microsoft'
p137
aS'goldman sachs--mario alberto huertas###has appointed###goldman sachs'
p138
aS'citigroup--citigroup inc###were accused by###u.s. and uk officials of brazenly cheating clients'
p139
aS'ford motor--aapc###represents including###ford motor co and general motors co'
p140
aS'microsoft--haiku deck###be now runs by###former microsoft executive adam tratt'
p141
aS'morgan stanley--merrill lynch###was left-lead with###bank of montreal , deutsche bank , morgan stanley and wells fargo'
p142
aS'apple--companies such as apple to check their suppliers###use###conflict-free " metals'
p143
aS'american airlines--american airlines group inc###said during###a transportation conference'
p144
aS"microsoft--recent history###has n't been on###microsoft 's side"
p145
aS'gap--gap###has reported###a fall'
p146
aS'microsoft--microsoft corp , oracle corp , ibm and sap se###have been touted as###potential acquirers'
p147
aS'united technologies--united technologies spokesman john moran###said in###an emailed statement'
p148
aS"hormel foods--hormel foods ' chief executive###cast doubt due to###a devastating outbreak of avian flu"
p149
aS'nasdaq--the nasdaq composite###lost###2.03 points , or 0.1 percent'
p150
aS"nasdaq--achillion 's shares###closed on###the nasdaq"
p151
aS'microsoft--building###to be prioritize for###microsoft'
p152
aS'nasdaq--advancing issues###fell on###the nasdaq'
p153
aS'wells fargo--j.p. morgan , bofa merrill lynch and wells fargo securities###are the lead underwriters for###the offering'
p154
aS'oracle--microsoft corp , oracle corp , ibm and sap se###have been touted as###potential acquirers'
p155
aS'jpmorgan chase--u.s. banks jpmorgan chase and citigroup###will pay###550 million and $ 925 million'
p156
aS'southern--the attack###was the first in###the southern capital'
p157
aS'apple--apple###gained###0.56 percent'
p158
aS"target--a yield###was above###the province 's target"
p159
aS'netapp--netapp###forecast###a profit of 20 cents'
p160
aS'united continental holdings--the chief financial officer of united continental holdings inc###broadly echoed at###the same conference'
p161
aS"time warner--time warner cable 's merger###fell apart in###last month"
p162
aS'nasdaq--the nasdaq composite###gained###1.71 points , or 0.03 percent'
p163
aS'nasdaq--the nasdaq composite###added 22.95 points , or 0.45 percent , to###5,092.98.'
p164
aS'american airlines--american airlines group inc president scott kirby###said###hundreds of travelers'
p165
aS'general electric--whose platform###is used by###general electric and tesla motors'
p166
aS'united technologies--united technologies spokesman john moran###said###an emailed statement'
p167
aS'target--few###expected###the 51-year-old tycoon to target the u.s.'
p168
aS'morgan stanley--bnp paribas , bank of america merrill lynch , citigroup , deutsche bank , morgan stanley and santander gbm###to schedule###a series of fixed-income investor meetings'
p169
aS'jpmorgan chase--the company which lists wells fargo & co and jpmorgan chase & co among its largest clients###also provides###information'
p170
aS'u.s. dollar--minutes###strengthened including###the u.s. dollar'
p171
aS'nasdaq--the nasdaq composite###added 0.86 points , or 0.02 percent , to###5,070.89'
p172
aS'microsoft--microsoft###executive###adam tratt'
p173
aS'citigroup--sergio luna###be an economist at###citigroup'
p174
aS'jpmorgan chase--a u.s. regulator###has granted a series of waivers to###jpmorgan chase'
p175
aS'monsanto--monsanto shares###were on###wednesday'
p176
aS"netapp--netapp 's shares###closed on###wednesday"
p177
aS'target--such wage hikes###will likely push inflation will above###the central bank of icelands 2.5 percent inflation target'
p178
aS'nasdaq--the nasdaq composite###was down 1.02 points , 0.05 percent , to###2,126.81'
p179
aS'monsanto--monsanto###needs###an entire portfolio of new offerings'
p180
aS'southwest airlines--southwest airlines co shares###plummeted###than 9 percent'
p181
aS'target--output###will reach###up to 700,000 tonnes or half of the annual target'
p182
aS'whirlpool--whirlpool###to cut###almost 2,000 jobs'
p183
aS"monsanto--monsanto###has wanted###farmer to pay a royalty if seeds carrying the company 's intacta technology are obtained from prior harvests"
p184
aS'target--inflation###will likely push will be above###the central bank of icelands 2.5 percent inflation target'
p185
aS'morgan stanley--morgan stanley , credit suisse , raymond james and rbc dominion securities###were among###the underwriters'
p186
aS'united technologies--they###can can be repaired including###possible work built by pratt & whitney , a unit of united technologies corp.'
p187
aS'target--the target###be raised to###250'
p188
aS'home depot--bigger rival home depot inc###to estimates on###tuesday'
p189
aS'target--he###was referring to###a nhtsa target'
p190
aS'halliburton--halliburton###said###it'
p191
aS'apple--an app###to be move from###apple or android'
p192
aS'western union--joe manimbo###be senior market analyst at###western union business solutions'
p193
aS'whirlpool--whirlpool###to invest in###italy'
p194
aS'morgan stanley--morgan stanley###dipped###4 percent'
p195
aS'northern trust--carl tannenbaum###be chief economist at###northern trust in chicago and a former fed official'
p196
aS'target--the target###be raised in###the three years'
p197
aS'conagra foods--unit of conagra foods inc###will pay $ 11.2 million to end###a federal probe'
p198
aS'time warner--time warner cable###is in###large u.s. markets'
p199
aS'united technologies--united technologies corp###is in###talks'
p200
aS'southern--the deepening crisis###be defusing in###the southern arabian peninsula'
p201
aS'monsanto--monsanto###continues to pursue###a deal'
p202
aS'bank of america--bnp paribas , bank of america merrill lynch , citigroup , deutsche bank , morgan stanley and santander gbm###to schedule###a series of fixed-income investor meetings'
p203
aS'apple--apple###was the biggest contributor to###gains'
p204
aS'jpmorgan chase--u.s. banks jpmorgan chase and citigroup###will pay $ as###part of their guilty pleas'
p205
aS'apple--apple inc###readies to launch###its own streaming service to compete with spotify and others'
p206
aS'target--target###said including###restructuring costs'
p207
aS'morgan stanley--brazilian food company brf rated baa3/bbb/bbb-,###hired###bnp paribas , bank of america merrill lynch , citigroup , deutsche bank , morgan stanley and santander'
p208
aS'netapp--netapp results###miss###estimates'
p209
aS'u.s. dollar--many currency strategists###are expecting###the u.s. dollar'
p210
aS"nasdaq--viacom 's shares###closed up 0.5 percent in###the nasdaq"
p211
aS'general motors--aapc###represents including###ford motor co and general motors co'
p212
aS"xl--xl group###snapped up###lloyd 's of london 's catlin group cgl.l"
p213
aS'nasdaq--the nasdaq composite###added###0.86 points , or 0.02 percent'
p214
aS'wal-mart stores--wal-mart stores inc###said of###it'
p215
aS'monsanto--monsanto###to be pay once at###the time of purchase'
p216
aS'netapp--netapp inc###be maker of###data storage equipment'
p217
aS'hormel foods--hormel foods###says###avian flu likely'
p218
aS"netapp--netapp 's shares###closed on###the nasdaq"
p219
aS'jpmorgan chase--the asset management arm of jpmorgan chase###appointed###alexis jarnoux'
p220
aS'monsanto--monsanto president brett begemann###said to###investors'
p221
aS"target--ge.n ) chief###gave###a faster timeline)[enabler=as he more than doubled a target for benefits from its purchase of alstom 's ( also.pa "
p222
aS'halliburton--halliburton###dismiss###claims'
p223
aS'coca-cola--the coca-cola company###does not condone###human rights abuses'
p224
aS'wells fargo--merrill lynch###was left-lead with###bank of montreal , deutsche bank , morgan stanley and wells fargo'
p225
aS'nasdaq--the nasdaq composite###gained 1.71 points , or 0.03 percent , to###5,071.74'
p226
aS'citigroup--citigroup###fell###0.79 percent'
p227
aS'xl--xl group###acquired underwriter antares in###last year'
p228
aS'whirlpool--whirlpool###to cut almost 2,000 jobs in###italy'
p229
aS'gap--apparel retailer gap inc###to report###a fall'
p230
aS'wells fargo--larry biegelsen###be analyst for###wells fargo'
p231
aS'time warner--time warner cable###has###a market capitalization of $ 44.5 billion'
p232
aS"monsanto--a deal###is a necessity for###monsanto 's long-term viability"
p233
aS"nasdaq--netapp 's shares###closed in###the nasdaq"
p234
aS'gilead sciences--gilead sciences inc###recently approved###pill harvoni'
p235
aS'monsanto--monsanto###said on###tuesday'
p236
aS'netapp--netapp inc###be maker for###data storage equipment'
p237
aS'nasdaq--the nasdaq composite###lost 2.03 points , or 0.1 percent , to###2,125.8'
p238
aS'microsoft--microsoft###is losing its hold in###a world where phones are expected to outsell pcs by more than six to one by 2017'
p239
aS'nasdaq--the nasdaq composite###lost 1.98 points , or 0.09 percent , to###2,125.85'
p240
aS'hormel foods--hormel foods corp###be the maker of###spam lunch meat'
p241
aS'citigroup--jpmorgan and citigroup###are expected in###the forex settlement'
p242
aS'target--target profit###tops###estimates'
p243
aS'target--june###could so did not fall below###its monthly buying target'
p244
aS'nasdaq--the nasdaq composite###advanced 22.67 points , or 0.45 percent , to###5,092.70'
p245
aS'nasdaq--the nasdaq composite###recorded###102 new highs and 54 new lows'
p246
aS'conagra foods--unit of conagra foods inc###will pay $ 11.2 million to end a federal probe into###a 2007 recall of peanut butter'
p247
aS"netapp--netapp 's shares###closed in###the nasdaq"
p248
aS"phillips 66--most of the crude###has been shipped with###phillips 66 's bayway refinery"
p249
aS'apple--apple###boosted###its repurchase program'
p250
aS'wal-mart stores--wal-mart stores inc###posted disappointing results on###tuesday'
p251
aS'target--target###has been promoting###a narrower set of products'
p252
aS'bank of america--chase and bank of america###stopped supporting###windows phone apps'
p253
aS'target--he###doubled###a target'
p254
aS'monsanto--the ministry###said###monsanto'
p255
aS'nasdaq--the nasdaq composite .ixic###gained 1.71 points , or 0.03 percent , to###5,071.74'
p256
aS'apple--windows###be based on###apps that run on android or apple'
p257
aS'united technologies--the jets###can can be repaired including###possible work built by pratt & whitney , a unit of united technologies corp.'
p258
aS'target--target###raised the low end of its full-year earnings outlook before###special items'
p259
aS'target--the speed of the recent spike###could so did not fall below###its monthly buying target'
p260
aS'southern--the case###is u.s. for###the southern district of new york'
p261
aS"wal-mart stores--conagra 's plea###sold under###the peter pan brand and wal-mart stores inc 's great value brand"
p262
aS'target--the acquisitive company###bought###a healthcare target'
p263
aS"time warner--malone 's charter communications###is also interested in###time warner"
p264
aS"nasdaq--netapp 's shares###closed on###the nasdaq"
p265
aS'southwest airlines--southwest airlines co###plummeted###than 9 percent'
p266
aS'monsanto--monsanto president brett begemann###said in###a presentation'
p267
aS'nasdaq--the nasdaq composite###added###22.95 points , or 0.45 percent'
p268
aS'monsanto--monsanto###is###not precluded'
p269
aS"goldman sachs--goldman sachs###is looking to bundle debt backing three of colombia 's 4g highway projects and sell it as###an up to us$ 500m 144a bond"
p270
aS'time warner--time warner cable###would also face###competition'
p271
aS'nasdaq--the nasdaq composite###added 1.71 points , or 0.03 percent , to end at###5,071.74'
p272
aS'general motors--general motors###said in###last december'
p273
aS'apple--candy crush interviews###found###just one planning to move an app from apple or android to microsoft ( msft.o )'
p274
aS'southwest airlines--southwest airlines co shares###plummeted more than 9 percent in###a wider selloff of u.s. airline stocks'
p275
aS'target--m&s###raised###the target'
p276
aS'netapp--netapp###expects to incur###charges of about $ 25 million to $ 35 million related to the job cuts'
p277
aS'jpmorgan chase--the company which lists wells fargo & co and jpmorgan chase & co among its largest clients###helps in###mortgage servicing'
p278
aS'wells fargo--the company which lists wells fargo & co and jpmorgan chase & co among its largest clients###also provides###information'
p279
atRp280
.