(lp1
c__builtin__
set
p2
((lp3
S'ralph lauren--ralph lauren corp###lost some ground on###wednesday'
p4
aS'ralph lauren--ralph lauren corp###lost###some ground'
p5
atRp6
ag2
((lp7
S'akamai--limelight###did not infringe###akamai patent u .s'
p8
aS'akamai--managing web images and video###be held by###rival akamai technologies inc'
p9
atRp10
ag2
((lp11
S'akamai--limelight###did not infringe###akamai patent u .s'
p12
aS'akamai--managing web images and video###be held by###rival akamai technologies inc'
p13
atRp14
ag2
((lp15
S'pfizer--pfizer drug###shows###early promise'
p16
atRp17
ag2
((lp18
S'northrop grumman--a federal court###dismissed###a raytheon co lawsuit that sought to halt a fresh look at the bidders of its losing rivals northrop grumman corp and lockheed martin corp'
p19
aS'raytheon--it###would re-evaluate###bids received in a $ 1 billion long-range radar competition after a federal court dismissed a raytheon co lawsuit'
p20
aS'raytheon--a federal court###dismissed###a raytheon co lawsuit that sought to halt a fresh look at the bidders of its losing rivals northrop grumman corp and lockheed martin corp'
p21
aS'lockheed martin--a federal court###dismissed###a raytheon co lawsuit that sought to halt a fresh look at the bidders of its losing rivals northrop grumman corp and lockheed martin corp'
p22
aS'raytheon--radar bids###be evaluate after###raytheon suit denied'
p23
atRp24
ag2
((lp25
S'delta air lines--delta air lines###approves###$ 5 billion buyback plan'
p26
atRp27
ag2
((lp28
S'williams--pipeline giant williams cos###is scrapping###its master limited partnership unit'
p29
atRp30
ag2
((lp31
S'at&t--cogent###specify demands for concessions in###at&t directv merger'
p32
aS'at&t--demands###be specify in###at&t directv merger'
p33
aS'directv--cogent###specify demands for concessions in###at&t directv merger'
p34
aS'directv--demands###be specify in###at&t directv merger'
p35
aS'directv--regulators###to restrict as###part of its proposed purchase of directv dtv.o'
p36
atRp37
ag2
((lp38
S'at&t--cogent###specify demands for concessions in###at&t directv merger'
p39
aS'at&t--demands###be specify in###at&t directv merger'
p40
aS'directv--cogent###specify demands for concessions in###at&t directv merger'
p41
aS'directv--demands###be specify in###at&t directv merger'
p42
atRp43
ag2
((lp44
S'morgan stanley--it###had fined###morgan stanley $ 2 million'
p45
atRp46
ag2
((lp47
S'at&t--cogent###specify demands for concessions in###at&t directv merger'
p48
aS'at&t--demands###be specify in###at&t directv merger'
p49
aS'directv--cogent###specify demands for concessions in###at&t directv merger'
p50
aS'directv--demands###be specify in###at&t directv merger'
p51
atRp52
ag2
((lp53
S'wal-mart stores--13 wal-mart stores inc###to test###a new unlimited online shipping service'
p54
atRp55
ag2
((lp56
S'cisco--cisco revenue###rises###5 pct'
p57
atRp58
ag2
((lp59
S'blackrock--13 blackrock inc###may pushed back against###arguments'
p60
atRp61
ag2
((lp62
S'ford motor--13 the venezuela division of ford motor co###may will sell sport utility vehicles in###dollars'
p63
aS'ford motor--13 the venezuela division of ford motor co###may will sell pickups in###dollars'
p64
aS'ford motor--13 the venezuela division of ford motor co###may will sell###pickups and sport utility vehicles'
p65
atRp66
ag2
((lp67
S'ford motor--the venezuela division of ford motor co (###said on###wednesday'
p68
atRp69
ag2
((lp70
S'waters--complete responsibility###arises from###their attempt to enter yemeni waters'
p71
atRp72
ag2
((lp73
S'facebook--facebook inc###tied up with###nine news publishers'
p74
atRp75
ag2
((lp76
S'abbvie--abbvie drug###extends###multiple myeloma remission study'
p77
atRp78
ag2
((lp79
S'wal-mart stores--wal-mart stores###said of###it'
p80
atRp81
ag2
((lp82
S'waters--military ships and aircraft###be dispatching to###the disputed waters of the south china sea'
p83
atRp84
ag2
((lp85
S'wells fargo--wells fargo###moves to streamline###major departments'
p86
atRp87
ag2
((lp88
S'northrop grumman--a federal court###dismissed###a raytheon co lawsuit that sought to halt a fresh look at the bidders of its losing rivals northrop grumman corp and lockheed martin corp'
p89
aS'raytheon--it###would re-evaluate###bids received in a $ 1 billion long-range radar competition after a federal court dismissed a raytheon co lawsuit'
p90
aS'raytheon--a federal court###dismissed###a raytheon co lawsuit that sought to halt a fresh look at the bidders of its losing rivals northrop grumman corp and lockheed martin corp'
p91
aS'lockheed martin--a federal court###dismissed###a raytheon co lawsuit that sought to halt a fresh look at the bidders of its losing rivals northrop grumman corp and lockheed martin corp'
p92
aS'raytheon--radar bids###be evaluate after###raytheon suit denied'
p93
atRp94
ag2
((lp95
S'verizon communications--verizon communications###has made###a better way to sell mobile video ads'
p96
atRp97
ag2
((lp98
S'ralph lauren--13 ralph lauren corp###may lost###some ground'
p99
aS'ralph lauren--13 ralph lauren corp###may lost some ground on###wednesday'
p100
atRp101
ag2
((lp102
S'gap--bund/treasuries###yield###gap shrinks'
p103
atRp104
ag2
((lp105
S'delta air lines--delta air lines###approves###$ 5 bln buyback plan'
p106
atRp107
ag2
((lp108
S"facebook--facebook 's new minimum wage and family###leave###policy which raises minimum hourly salaries for contractors to $ 15 per hour"
p109
atRp110
ag2
((lp111
S'pall--air and water-filter maker pall corp pll .n###will be buy in###a $ 13.8 billion deal'
p112
atRp113
a.