c__builtin__
set
p1
((ltRp2
.c__builtin__
set
p1
((lp2
S"another transformer fire###triggered the temporary closure of a unit at###entergy 's arkansas nuclear power plant"
p3
aS'citigroup inc###is "very focussed on###the internet space'
p4
aS'entergy corp###said###no danger'
p5
aS'here###is a natural asset for###apple'
p6
aS'clashes###continued in###the southern port city of aden'
p7
aS"exelon corp 's oyster creek nuclear power station###resumed operations for###instance"
p8
aS'phillips 66 shares###could rise another 15 percent in###the coming months based on strong earnings and growth potential at the oil refiner'
p9
aS"exelon corp 's oyster creek nuclear power station###resumed operations in###early 2009"
p10
aS'( 1 ) stronger external demand###wrote huw pill at###goldman sachs'
p11
aS'cars###to be push through###the muddy waters'
p12
aS'the target###was in###ukraine'
p13
aS'may 10 honeywell international inc shares###could rise in###the longer-term'
p14
aS'texas-based noble energy###owns###36 percent of tamar'
p15
aS'their rockets###to be fire at###a target'
p16
aS'i###missed###the target'
p17
aS'entergy corp###also said###no danger'
p18
aS'entergy###returned the 1,031-megawatt unit 3 back to service on###friday'
p19
aS'he###was sent in###southern russia'
p20
aS'may 10 honeywell international inc shares###could rise in###the next year and close'
p21
aS'entergy corp###said###the plant'
p22
aS'citigroup inc###advised indian online payment services provider one97###communications'
p23
aS'may 10 honeywell international inc shares###could rise by###about 20 percent'
p24
aS'the men###to fire their rockets at###a target'
p25
aS'texas-based noble energy###owns of###tamar'
p26
aS'the government###has lowered###its growth target'
p27
aS"the temporary closure of a unit###be triggered at###entergy 's arkansas nuclear power plant"
p28
aS'entergy corp###also said###the plant'
p29
aS"exelon corp 's oyster creek nuclear power station###resumed###operations"
p30
aS'entergy###returned###the 1,031-megawatt unit'
p31
aS'morgan stanley and goldman sachs###did not respond to###requests'
p32
aS'phillips 66 shares###poised to rise###another 15 pct -barron'
p33
aS"china 's trade###grew 3.4 percent missing###the government 's growth target of 7.5 percent"
p34
aS'the facility###be runs by###entergy corp'
p35
aS'the southern poverty law center###has called###the freedom centers founder'
p36
aS'phillips 66 shares###could rise###another 15 percent'
p37
aS'huw pill###be wrote at###goldman sachs'
p38
atRp39
.