c__builtin__
set
p1
((lp2
S'c###has made###huge gains'
p3
aS'kim###joined###new york life'
p4
aS'abt###joined from###jpmorgan'
p5
aS'cvs###nears###deal to buy omnicare for more than $ 12 billion'
p6
aS'ibm###have been touted as###potential acquirers of salesforce valued at about $ 45.6 billion'
p7
aS'ge###would consider selling intellectual property around###a product'
p8
aS'hp###had warned of###a stronger dollar'
p9
aS'ge###speeds up###finance sales timing , confident'
p10
aS'dfs###will be leave in###late june'
p11
aS'ge###is seen like###other suppliers'
p12
aS'ge###previously had forecast###a drop of as much as 5 percent'
p13
aS'ge###would consider selling###intellectual property'
p14
aS'kim###joined new york life in###2008'
p15
aS'c###has made huge gains in###recent years'
p16
aS'hp###took about two-thirds of its revenue in###the year'
p17
atRp18
.c__builtin__
set
p1
((lp2
S'chase and bank of america###stopped supporting###windows phone apps'
p3
aS'kiev###is also holding###talks to restructure sovereign and state-guaranteed debt to plug a $ 15 billion funding gap'
p4
aS'the nasdaq composite .ixic###gained 1.71 points , or 0.03 percent , to###5,071.74'
p5
aS'microsoft###is losing its hold on###personal computing'
p6
aS'general motors###said in###last december'
p7
aS'vtb capital the russian bank###has hired atanas djumaliev from###goldman sachs'
p8
aS'microsoft###said of###it'
p9
aS'the nasdaq composite###ended off 26.99 points , or 0.15 percent , to###18,285.4'
p10
aS'american airlines group inc president scott kirby###said during###a transportation conference'
p11
aS'monsanto###said in###tuesday'
p12
aS'he###doubled###a target'
p13
aS'time warner cable###has###a market capitalization of $ 44.5 billion'
p14
aS"ge.n ) chief###gave###a faster timeline)[enabler=as he more than doubled a target for benefits from its purchase of alstom 's ( also.pa "
p15
aS'john moran###be spokesman for###united technologies'
p16
aS'the stock###closed up $ 1.81 to $ 42.73 on###the nasdaq'
p17
aS'advancing issues###fell on###the nasdaq'
p18
aS'target###said###first-quarter net earnings'
p19
aS'wells fargo analyst larry biegelsen###forecast daratumumab sales reaching $ 1.3 billion by###2019'
p20
aS'the ecb###could so did not fall below###its monthly buying target'
p21
aS'goldman sachs###to bundle###debt backing'
p22
aS'citigroup inc###were accused by###u.s. and uk officials of brazenly cheating clients'
p23
aS'whirlpool###to cut almost 2,000 jobs in###italy'
p24
aS'the case###is u.s. for###the southern district of new york'
p25
aS'target###raised the low end of its full-year earnings outlook before###special items'
p26
aS'a microsoft spokesman###did not rule out###any move'
p27
aS'market share###was taking from###wal-mart stores inc'
p28
aS'bart wakabayashi###be head of forex at###state street'
p29
aS'apparel retailer gap inc###to report###a fall'
p30
aS'anthem inc###said in###this year'
p31
aS"a yield###was above###the province 's target"
p32
aS"viacom 's shares###closed up 0.5 percent in###the nasdaq"
p33
aS'he###believed of###target'
p34
aS'target###would have###the capacity to retire $ 2 billion or more of its shares this fiscal year'
p35
aS'the coca-cola company###does not condone###human rights abuses'
p36
aS'monsanto president brett begemann###said to###investors'
p37
aS'the deepening crisis###be defusing in###the southern arabian peninsula'
p38
aS'the target###be raised in###the three years'
p39
aS"about 80 percent of mexico 's current oil production###comes from###shallow water deposits clustered around the southern rim of the gulf of mexico"
p40
aS'citigroup###fell###0.79 percent'
p41
aS'monsanto###continues to pursue###a deal'
p42
aS'target###raised###the low end of its full-year earnings outlook'
p43
aS'the jets###can can be repaired including###possible work built by pratt & whitney , a unit of united technologies corp.'
p44
aS'textron###was similarly###positive'
p45
aS'southwest airlines co###plummeted more than 9 percent in###a wider selloff of u.s. airline stocks'
p46
aS'static business windows###is a big but static business for###microsoft'
p47
aS'j.p. morgan , bofa merrill lynch and wells fargo securities###were###lead underwriters'
p48
aS'halliburton###said in###september'
p49
aS'u.s. banks jpmorgan chase and citigroup###will pay###550 million and $ 925 million'
p50
aS'apple###boosted###its repurchase program'
p51
aS'halliburton###dismiss###claims'
p52
aS'united technologies spokesman john moran###said in###an emailed statement'
p53
aS'whirlpool###to invest in###italy'
p54
aS'the hepatitis c market###be now dominated by###gilead sciences'
p55
aS"replacing ibm servers###used after###international business machines corp 's $ 2.1 billion sale of its server division"
p56
aS'the nasdaq composite###was down 0.23 points , 0.01 percent , to###2,127.6'
p57
aS'wal-mart stores inc###posted disappointing results on###tuesday'
p58
aS"raised tensions###be raising with###farmers who object to monsanto 's demand"
p59
aS'chase and bank of america###pulled its windows phone test app in###last year'
p60
aS'netapp###has been trying to boost###growth'
p61
aS'whirlpool###to cut###almost 2,000 jobs'
p62
aS'a u.s. regulator###has granted a series of waivers to###jpmorgan chase & co and four other major banks allowing them to continue their usual securities business'
p63
aS"hormel foods ' chief executive###cast doubt due to###a devastating outbreak of avian flu"
p64
aS'the attack###was the first in###the southern capital'
p65
aS'gilead sciences inc###recently approved###pill harvoni'
p66
aS'chase and bank of america###stopped in###this year'
p67
aS'united technologies spokesman john moran###said###an emailed statement'
p68
aS'monsanto###needs###an entire portfolio of new offerings'
p69
aS'the company which lists wells fargo & co and jpmorgan chase & co among its largest clients###also provides###information'
p70
aS'apple###boosted its repurchase program in###april'
p71
aS"monsanto###has wanted###farmer to pay a royalty if seeds carrying the company 's intacta technology are obtained from prior harvests"
p72
aS'u.s. banks jpmorgan chase and citigroup###will pay $ 550 million and $ 925 million in###criminal fines'
p73
aS'monsanto shares###were on###wednesday'
p74
aS'hormel foods corp###be the maker of###spam lunch meat'
p75
aS'the nasdaq composite###was recording###89 new highs and 50 new lows'
p76
aS'whirlpool###has been in###government-brokered talks'
p77
aS'they###can can be repaired including###possible work built by pratt & whitney , a unit of united technologies corp.'
p78
aS'the company which lists wells fargo & co and jpmorgan chase & co among its largest clients###also provides information on property valuation and collateral risk to###originators and mortgage servicers'
p79
aS'the nasdaq composite###ended off 26.99 points , or 0.15 percent , to###2,125.85'
p80
aS'unit of conagra foods inc###will pay $ 11.2 million to end a federal probe into###a 2007 recall of peanut butter'
p81
aS'apple###was the biggest contributor to###gains'
p82
aS'it###accept###tweaked apple and android apps'
p83
aS'hormel foods###says###avian flu likely'
p84
aS'data storage equipment maker netapp inc###is cutting###about 500 jobs'
p85
aS'xl group###acquired underwriter antares in###last year'
p86
aS"u.s. banks jpmorgan and citigroup and britain 's barclays and royal bank of scotland###to plead guilty to###criminal charges related to forex rigging"
p87
aS'goldman sachs###is looking to bundle###debt backing'
p88
aS'target###was taking###market share'
p89
aS"microsoft###has n't actually unveiled###its new set of tools to turn apps into a windows format"
p90
aS'kevin pollack###be vice president for###stericycle expertsolutions'
p91
aS'time warner cable###is in###large u.s. markets'
p92
aS'american airlines group inc president scott kirby###said###hundreds of travelers'
p93
aS'1,369###fell on###the nasdaq'
p94
aS'the target###be raised to###march 2017'
p95
aS'monsanto###to be pay once at###the time of purchase'
p96
aS"( reuters ) - general electric co 's chief###gave###a faster timeline"
p97
aS'citigroup , jpmorgan , rbs and barclays###pleaded guilty on###wednesday'
p98
aS'kuroda###has will###no intention ditching the two-year timeframe or the base money target'
p99
aS'shallow water deposits###be clustered around###the southern rim of the gulf of mexico'
p100
aS'randy frederick###derivatives for###charles schwab'
p101
aS'larry biegelsen###be analyst of###wells fargo'
p102
aS"farmers###object to###monsanto 's demand"
p103
aS'corp###reported a larger-than-expected rise in quarterly profit in###target'
p104
aS'wells fargo analyst larry biegelsen###forecast###daratumumab sales reaching $ 1.3 billion'
p105
aS'few###expected###the 51-year-old tycoon to target the u.s.'
p106
aS'the acquisitive company###bought###a healthcare target'
p107
aS'american airlines group inc###said that###hundreds of travelers'
p108
aS"it###'s an uphill battle for###microsoft"
p109
aS'the nasdaq composite .ixic###added 1.71 points , or 0.03 percent , to end at###5,071.74'
p110
aS'southwest airlines co shares###plummeted###than 9 percent'
p111
aS'the ministry###said###monsanto'
p112
aS'morgan stanley###dipped###4 percent'
p113
aS'it###would take###a different approach to online growth than amazon.com inc by using its large network of stores as distribution points'
p114
aS'the nasdaq composite###added###1.71 points , or 0.03 percent'
p115
aS'the odds###should favor modestly overshooting###our 2 percent target'
p116
aS'industry minister federica guidi###said###whirlpool'
p117
aS'jp morgan , bofa merrill lynch and wells fargo securities###are among###the lead underwriters'
p118
aS"hormel foods ' chief executive###cast doubt for###as much as 4 percent increase"
p119
aS"achillion 's shares###closed on###the nasdaq"
p120
aS'seeds###be developed by###monsanto co.'
p121
aS'wal-mart stores inc###said of###it'
p122
aS'david longridge###be president of###boeing business jets'
p123
aS'microsoft , oracle , ibm and sap###have been touted as###potential buyers of salesforce'
p124
aS'morgan stanley , credit suisse , raymond james and rbc dominion securities###were among###the underwriters of the ipo'
p125
aS'merrill lynch###was left-lead with###bank of montreal , deutsche bank , morgan stanley and wells fargo'
p126
aS'microsoft###said in###last month'
p127
aS'target###was taking market share from###wal-mart stores inc'
p128
aS'he###had had also served as###president of cigna retirement'
p129
aS'mcdermott###be pressed on###the possibility of arch-rival oracle buying salesforce'
p130
aS'monsanto shares###were off###0.65 percent'
p131
aS'john moran###be spokesman of###united technologies'
p132
aS'time warner cable###is a much bigger bite would for###altice'
p133
aS'target###has been promoting###a narrower set of products'
p134
aS'adam tratt###be executive of###microsoft'
p135
aS'june###could so did not fall below###its monthly buying target'
p136
aS'a u.s. regulator###has granted a series of waivers to###jpmorgan chase'
p137
aS'inflation###will likely push will be above###the central bank of icelands 2.5 percent inflation target'
p138
aS'the nasdaq composite###declined losing###1.02 points , or 0.02 percent'
p139
aS'microsoft corp , oracle corp , ibm and sap###have been touted as###potential acquirers of salesforce valued at about $ 45.6 billion'
p140
aS'bigger rival home depot inc###to estimates on###tuesday'
p141
aS'the money###would ultimately end up with###monsanto'
p142
aS'target###said including###restructuring costs'
p143
aS'aapc###represents including###ford motor co and general motors co'
p144
aS"xl group###snapped up###lloyd 's of london 's catlin group cgl.l"
p145
aS'the nasdaq composite###lost###2.03 points , or 0.1 percent'
p146
aS'j.p. morgan , bofa merrill lynch and wells fargo securities###are the lead underwriters for###the offering'
p147
aS"investors###were demanding###a yield that was well above the province 's target"
p148
aS'apple###cool to###microsoft overtures'
p149
aS'the nasdaq composite###was down 1.02 points , 0.05 percent , to###2,126.81'
p150
aS'the nasdaq composite .ixic###added###1.71 points , or 0.03 percent'
p151
aS"netapp 's shares###closed on###the nasdaq"
p152
aS'hp###had warned of###a stronger dollar'
p153
aS'the company which lists wells fargo & co and jpmorgan chase & co among its largest clients###helps in###mortgage servicing'
p154
aS'whirlpool###pledged to invest in###italy'
p155
aS'the nasdaq composite .ixic###gained###1.71 points , or 0.03 percent'
p156
aS'sergio luna###be an economist at###citigroup'
p157
aS'the nasdaq composite###added###0.86 points , or 0.02 percent'
p158
aS'sysco corp###be distributor for###food'
p159
aS'wal-mart stores inc###are boosting their minimum wages over###time'
p160
aS'companies such as apple to check their suppliers###use###conflict-free " metals'
p161
aS'time warner cable###is would###a much bigger bite'
p162
aS'microsoft###is losing its hold in###a world where phones are expected to outsell pcs by more than six to one by 2017'
p163
aS'halliburton###said###it'
p164
aS'gap###has reported###a fall'
p165
aS'agreements pushing inflation beyond a target###be combined with###weakness'
p166
aS'monsanto soy seed use###to be register in###crackdown'
p167
aS'apple###gained###0.56 percent'
p168
aS'sysco corp###be distributor of###food'
p169
aS'derb carter###be an attorney for###the southern environmental law center'
p170
aS'unit of conagra foods inc###will pay $ 11.2 million including###the peter pan brand'
p171
aS'syngenta###is developing crop protection products that use naturally-occurring microbes like###monsanto'
p172
aS'john dern###be spokesman for###boeing'
p173
aS"netapp 's shares###closed in###the nasdaq"
p174
aS'tom metzold###be senior portfolio manager at###eaton vance management'
p175
aS'gap###has supply disruptions at###west coast ports'
p176
aS'citigroup###lost###0.79 percent'
p177
aS'southwest airlines co shares###plummeted more than 9 percent in###a wider selloff of u.s. airline stocks'
p178
aS'the nasdaq composite###lost 1.98 points , or 0.09 percent , to###2,125.85'
p179
aS'inflation one or two years###ahead will be at###our 2 percent target'
p180
aS'the target###be raised to###250'
p181
aS'state street global advisors###to sell###its 49 percent stake'
p182
aS'monsanto president brett begemann###said###a presentation'
p183
aS'whose platform###is used by###general electric and tesla motors'
p184
aS'it###then may have to spend beyond###a previously announced investment target'
p185
aS'southwest airlines co###plummeted###than 9 percent'
p186
aS'xl group###acquired###underwriter antares'
p187
aS'the nasdaq composite###added 0.86 points , or 0.02 percent , to###5,070.89'
p188
aS'the asset management arm of jpmorgan chase###appointed alexis jarnoux as###sales manager'
p189
aS'the nasdaq composite###added 1.71 points , or 0.03 percent , to###5,071.74'
p190
aS'the nasdaq composite###lost###1.98 points , or 0.09 percent'
p191
aS'equifax , experian and trans union###will also pay $ 6 million to###the states'
p192
aS'altice###is very keen on###time warner cable'
p193
aS'the nasdaq composite###added 22.95 points , or 0.45 percent , to###5,092.98.'
p194
aS'the speed of the recent spike###could so did not fall below###its monthly buying target'
p195
aS'the stock###closed up $ 1.81 to $ 42.73 in###the nasdaq'
p196
aS"home depot 's shares###had risen###about 47 percent"
p197
aS'j.p. morgan , bofa merrill lynch and wells fargo securities###were lead underwriters for###the offering'
p198
aS'jpmorgan and citigroup###are expected in###the forex settlement'
p199
aS'failure to attract the apps###would not be fatal for###microsoft'
p200
aS'microsoft###executive###adam tratt'
p201
aS'u.s. banks jpmorgan chase and citigroup###will pay $ as###part of their guilty pleas'
p202
aS'microsoft###does have###some loyal supporters'
p203
aS'rbc capital markets and goldman sachs canada###are leading###the syndicate of underwriters'
p204
aS"hormel foods ' chief executive###cast doubt on###federal forecasts"
p205
aS'time warner cable###is also being circled by###small rival charter communications'
p206
aS'the nasdaq composite###advanced###22.67 points , or 0.45 percent'
p207
aS'netapp###to cut###500 jobs'
p208
aS'apple inc###readies to launch###its own streaming service to compete with spotify and others'
p209
aS'the target###be raised from###200'
p210
aS'monsanto###is###not precluded'
p211
aS'a delaware judge###approved###a $ 275 million shareholder settlement involving videogame maker activision blizzard inc'
p212
aS"recent history###has n't been on###microsoft 's side"
p213
aS'chase and bank of america###pulled###its windows phone test app'
p214
aS'the fca###slapped penalties totalling $ 4.3 billion rigging including###hsbc , ubs and bank of america'
p215
aS'the nasdaq composite###added###22.95 points , or 0.45 percent'
p216
aS'netapp###forecast###a profit of 20 cents'
p217
aS'the chief financial officer of united continental holdings inc###broadly echoed at###the same conference'
p218
aS'netapp###to boost###growth'
p219
aS"viacom 's shares###closed up 0.5 percent on###the nasdaq"
p220
aS'unit of conagra foods inc###will pay $ 11.2 million to end###a federal probe'
p221
aS'u.s. banks jpmorgan chase and citigroup###will pay $ 550 million and $ 925 million as###part of their guilty pleas'
p222
aS'netapp inc###be maker of###data storage equipment'
p223
aS'john dern###be spokesman of###boeing'
p224
aS'glyphosate chemistry and the related crop traits###contribute###roughly 70 percent of monsanto earnings'
p225
aS'mario alberto huertas###has appointed###goldman sachs'
p226
aS'netapp results###miss###estimates'
p227
aS"netapp 's shares###closed on###wednesday"
p228
aS'last november###slapped penalties totalling $ 4.3 billion rigging including###hsbc , ubs and bank of america'
p229
aS'output###will reach###up to 700,000 tonnes or half of the annual target'
p230
aS'u.s.-based monsanto###is###confident'
p231
aS'the saudi-led coalition###controls has###the waters'
p232
aS'monsanto###said on###tuesday'
p233
aS"achillion 's shares###closed in###the nasdaq"
p234
aS'minutes###strengthened including###the u.s. dollar'
p235
aS'the office of the comptroller of the currency###slapped penalties totalling $ 4.3 billion rigging including###hsbc , ubs and bank of america'
p236
aS'equifax , experian and trans union###have credit data for###than 200 million americans'
p237
aS'morgan stanley , credit suisse , raymond james and rbc dominion securities###were among###the underwriters'
p238
aS'the nasdaq composite###gained 1.71 points , or 0.03 percent , to###5,071.74'
p239
aS'monsanto president brett begemann###said of###investors'
p240
aS'norihiro fujito###be senior investment strategist at###mitsubishi ufj morgan stanley securities'
p241
aS'apple###to check###their suppliers'
p242
aS'joe manimbo###be senior market analyst at###western union business solutions'
p243
aS'target profit###tops###estimates'
p244
aS'french telecommunications group altice sa###has held###talks to buy time warner cable inc'
p245
aS'boeing###specialize in###the larger business jets popular'
p246
aS'two###are made by###microsoft'
p247
aS'bnp paribas , bank of america merrill lynch , citigroup , deutsche bank , morgan stanley and santander gbm###to schedule###a series of fixed-income investor meetings'
p248
aS'the nasdaq composite###gained###5.05 points , or 0.24 percent'
p249
aS'the nasdaq composite###lost 2.03 points , or 0.1 percent , to###2,125.8'
p250
aS'brazilian food company brf rated baa3/bbb/bbb-,###hired###bnp paribas , bank of america merrill lynch , citigroup , deutsche bank , morgan stanley and santander'
p251
aS'target###said###sales'
p252
aS'apple###boosted its repurchase program under###pressure'
p253
aS'monsanto co###be largest seed company of###the world'
p254
aS'the nasdaq composite###gained###1.71 points , or 0.03 percent'
p255
aS'the nasdaq composite###added 1.71 points , or 0.03 percent , to end at###5,071.74'
p256
aS'the asset management arm of jpmorgan chase###appointed###alexis jarnoux'
p257
aS'state street global advisors###is also looking to sell###its 49 percent stake'
p258
aS'haiku deck###be now runs by###former microsoft executive adam tratt'
p259
aS'the nasdaq composite###recorded###102 new highs and 54 new lows'
p260
aS'u.s. banks jpmorgan chase and citigroup###will pay $ in###criminal fines'
p261
aS"a deal###is a necessity for###monsanto 's long-term viability"
p262
aS'the nasdaq composite###gained 5.05 points , or 0.24 percent , to###2,132.88'
p263
aS'building###to be prioritize for###microsoft'
p264
aS"time warner cable 's merger###fell apart in###last month"
p265
aS"bank of new york mellon###won###regulatory approval to sell its stake in a joint venture with china 's western securities"
p266
aS'the nasdaq composite###advanced 22.67 points , or 0.45 percent , to###5,092.70'
p267
aS'citigroup chief executive officer mike corbat###said###a memo'
p268
aS'american airlines group inc###said during###a transportation conference'
p269
aS"malone 's charter communications###is also interested in###time warner"
p270
aS"hormel foods ' chief executive###cast###doubt"
p271
aS'the nasdaq composite###was ahead 4.63 points , 0.22 percent , to###2,132.46'
p272
aS"apple 's new language###may soon eclipse###the current one"
p273
aS'larry biegelsen###be analyst for###wells fargo'
p274
aS'apple###was###the biggest contributor'
p275
aS'candy crush interviews###found###just one planning to move an app from apple or android to microsoft ( msft.o )'
p276
aS'an app###to move to be###microsoft'
p277
aS'he###was referring to###a nhtsa target'
p278
aS'time warner cable###would also face###competition'
p279
aS'such wage hikes###will likely push inflation will above###the central bank of icelands 2.5 percent inflation target'
p280
aS'm&s###raised###the target'
p281
aS'cvs health###to buy###pharmacy service provider omnicare'
p282
aS'many currency strategists###are expecting###the u.s. dollar'
p283
aS'the nasdaq composite###declined losing 1.02 points , or 0.02 percent , to###5,069.01'
p284
aS'may 20 citigroup inc and jpmorgan morgan chase###are receiving###regulatory waivers'
p285
aS'great value###be brand of###wal-mart stores inc'
p286
aS'an app###to be move from###apple or android'
p287
aS'monsanto###has sought to diversify###its business'
p288
aS'monsanto###to be pay once for###the seeds'
p289
aS"most of the crude###has been shipped with###phillips 66 's bayway refinery"
p290
aS'netapp###expects to incur###charges of about $ 25 million to $ 35 million related to the job cuts'
p291
aS'windows###be based on###apps that run on android or apple'
p292
aS'monsanto president brett begemann###said in###a presentation'
p293
aS"netapp 's shares###closed in###wednesday"
p294
aS'food distributor sysco corp###said in###this month'
p295
aS"goldman sachs###is looking to bundle debt backing three of colombia 's 4g highway projects and sell it as###an up to us$ 500m 144a bond"
p296
aS"xl group###snapped up lloyd 's of london 's catlin group cgl.l in###january"
p297
aS'citigroup chief executive officer mike corbat###said in###a memo'
p298
aS'hp###took about two-thirds of its revenue in###the year'
p299
aS'netapp inc###be maker for###data storage equipment'
p300
aS'carl tannenbaum###be chief economist at###northern trust in chicago and a former fed official'
p301
aS'microsoft corp , oracle corp , ibm and sap se###have been touted as###potential acquirers'
p302
aS"conagra 's plea###sold under###the peter pan brand and wal-mart stores inc 's great value brand"
p303
aS'adam tratt###be executive for###microsoft'
p304
aS'united technologies corp###is in###talks'
p305
atRp306
.