(lp1
c__builtin__
set
p2
((lp3
S"nike--nike inc###would be making###a company announcement to coincide with president barack obama 's visit to the company 's oregon headquarters on friday"
p4
aS'nike--nike###share###their news'
p5
atRp6
ag2
((lp7
S'monsanto--monsanto and syngenta###hire###u .s'
p8
atRp9
ag2
((lp10
S'hess--hess owned oil railcars###be involved in###north dakota derailment'
p11
aS'hess--a bnsf train that derailed in central north dakota on wednesday###was carrying###railcars owned by hess corp 10 of which caught fire and forced the evacuation of a nearby town , the oil producer told reuters late wednesday'
p12
atRp13
ag2
((lp14
S'nike--nike###share###their news'
p15
aS"nike--nike###would be making###a company announcement to coincide with president barack obama 's visit to the company 's headquarters on friday"
p16
atRp17
ag2
((lp18
S'bank of america--four bank of america corp ( bac. n ) directors###received of###votes'
p19
aS"bank of america--four bank of america corp ( bac. n ) directors###received unusually small majorities of votes at###this week 's annual meeting"
p20
aS'bank of america--four bank of america corp ( bac. n ) directors###received###small majorities of votes'
p21
aS'bank of america--bank of america directors###lose###support'
p22
aS'bank of america--four bank of america corp ( bac. n ) directors###received unusually small majorities of votes for###re-election'
p23
atRp24
ag2
((lp25
S'cbs--cbs profit###be hit by###higher programming costs'
p26
atRp27
ag2
((lp28
S'time warner--a libel case###be brought against###the time warner inc ( twx .n ) subsidiary by a british sporting goods company was groundless and maybe even defamatory'
p29
atRp30
ag2
((lp31
S'jpmorgan chase--banks citigroup and jpmorgan chase###expect to gain###market share'
p32
aS'citigroup--banks citigroup and jpmorgan chase###expect to gain###market share'
p33
atRp34
ag2
((lp35
S"walt disney--walt disney co###thursday named resorts ' executive vice president of marketing as###president of its fast-growing consumer products division"
p36
aS"walt disney--walt disney co###thursday named###its parks and resorts ' executive vice president of marketing , leslie ferraro"
p37
atRp38
ag2
((lp39
S'time warner--a libel case brought against the time warner inc subsidiary by a british sporting goods company###was###groundless and maybe even defamatory'
p40
aS'time warner--a libel case###be brought against###the time warner inc subsidiary'
p41
atRp42
ag2
((lp43
S'bank of america--bank of america merrill lynch###has appointed###chris munro as co-head of leveraged finance europe , middle east and africa'
p44
atRp45
ag2
((lp46
S'boeing--7 boeing co###may will struggle to boost###international sales of its f/a-18e/f super hornet fighter jets'
p47
aS'boeing--7 boeing co###to boost###international sales of its f/a-18e/f super hornet fighter jets'
p48
atRp49
ag2
((lp50
S'morgan stanley--morgan stanley###renews u###.s'
p51
aS"morgan stanley--morgan stanley 's commodities group###has renewed###a refined product storage deal"
p52
atRp53
ag2
((lp54
S'waters--maersk ship released###has left###its territorial waters'
p55
atRp56
ag2
((lp57
S'mastercard--mastercard###doubles card numbers in###middle'
p58
aS'mastercard--mastercard inc###has doubled###the number of its cards'
p59
aS'mastercard--mastercard inc###has doubled the number of its cards to###about 100 million'
p60
aS'mastercard--mastercard inc###has doubled the number of its cards in###the middle'
p61
aS'mastercard--mastercard###doubles###card numbers'
p62
atRp63
ag2
((lp64
S'qualcomm--eu antitrust regulators###not probing###qualcomm licensing deals eu source'
p65
atRp66
ag2
((lp67
S"qualcomm--chipmaker qualcomm 's patent licensing deals###said###response"
p68
aS"qualcomm--chipmaker qualcomm 's patent licensing deals###said in###response"
p69
aS'qualcomm--eu antitrust regulators###not probing###qualcomm licensing deals eu source'
p70
atRp71
ag2
((lp72
S"goldman sachs--a bond insurer 's $ 120 million lawsuit claiming goldman sachs group inc###lied about###a pool of securities"
p73
aS'goldman sachs--goldman sachs###must face###$ 120 mln suit'
p74
atRp75
ag2
((lp76
S'mastercard--mastercard###doubles card numbers in###middle'
p77
aS'mastercard--mastercard###doubles###card numbers'
p78
atRp79
ag2
((lp80
S'goldman sachs--goldman sachs###must face $ 120 million suit over###mortgage securities'
p81
aS'goldman sachs--goldman sachs###must face###$ 120 million suit'
p82
atRp83
ag2
((lp84
S'boeing--airbus###surges###past boeing'
p85
atRp86
ag2
((lp87
S'amgen--the blockbuster amgen inc drug###used to prevent infections in###cancer patients'
p88
aS'amgen--the blockbuster amgen inc drug###used to prevent###infections'
p89
atRp90
ag2
((lp91
S"facebook--6 the leader of facebook inc 's fast-growing seattle office###may left###the company"
p92
aS"facebook--6 the leader of facebook inc 's fast-growing seattle office###may left the company in###last month"
p93
atRp94
ag2
((lp95
S'nvidia--nvidia corp forecast lower-than-expected revenue###weighed down by###lower demand'
p96
atRp97
ag2
((lp98
S"nvidia--update 1 nvidia 's revenue forecast###misses estimates due to###lower pc sales"
p99
atRp100
ag2
((lp101
S'cbs--corp ( cbs .n ) , owner of the most-watched u .s . tv network###reported###a better-than-expected quarterly profit'
p102
aS'cbs--cbs profit###beats as###revenue from affiliates and subscriptions rise'
p103
atRp104
ag2
((lp105
S'bank of america--four bank of america corp directors###received###small majorities of votes'
p106
aS"bank of america--four bank of america corp directors###received unusually small majorities of votes at###this week 's annual meeting"
p107
aS'bank of america--four bank of america corp directors###received of###votes'
p108
aS'bank of america--bank of america directors###lose###support'
p109
aS'bank of america--four bank of america corp directors###received unusually small majorities of votes for###re-election'
p110
atRp111
ag2
((lp112
S"lyondellbasell industries nv--hourly workers###striking against###lyondellbasell industries nv 's ( lyb.n ) houston refinery"
p113
atRp114
ag2
((lp115
S'cbs--sumner redstone###be the 91-year-old owner of###viacom inc and cbs corp'
p116
aS'viacom--sumner redstone###be the 91-year-old owner of###viacom inc and cbs corp'
p117
atRp118
ag2
((lp119
S'bank of america--bank of america directors###lose###support'
p120
atRp121
ag2
((lp122
S'bank of america--7 four bank of america corp directors###may received unusually small majorities of votes for###re-election'
p123
aS'bank of america--7 four bank of america corp directors###may received###small majorities of votes'
p124
aS'bank of america--7 four bank of america corp directors###may received of###votes'
p125
aS"bank of america--7 four bank of america corp directors###may received unusually small majorities of votes at###this week 's annual meeting"
p126
atRp127
ag2
((lp128
S'hess--confirmation railcars###(adds were owned by###hess'
p129
aS'hess--crude oil###be owned by###hess corp derailed and caught fire'
p130
atRp131
ag2
((lp132
S'cbs--cbs profit###beats as###revenue from affiliates and subscriptions rise'
p133
atRp134
ag2
((lp135
S'equinix--equinix###moves###interxion deal'
p136
aS'equinix--equinix###moves interxion deal to gatecrash###telecity'
p137
atRp138
ag2
((lp139
S"equinix--british data center provider telecity group plc###has opened###talks ( $ 3.5 billion ) takeover by equinix inc , throwing into doubt telecity 's deal to buy interxion holding nv agreed three months ago"
p140
atRp141
ag2
((lp142
S'goldman sachs--goldman sachs###must face###$ 120 mln suit'
p143
atRp144
ag2
((lp145
S"goldman sachs--a bond insurer 's $ 120 million lawsuit claiming goldman sachs group inc###lied about###a pool of securities"
p146
atRp147
ag2
((lp148
S'apple--brief apple watch processor###be made by###samsung ifxit'
p149
atRp150
ag2
((lp151
S"apple--apple watch 's processor###is###contract manufactured by samsung electronics"
p152
atRp153
ag2
((lp154
S'goldman sachs--goldman sachs###must face###$ 120 mln suit'
p155
atRp156
ag2
((lp157
S"goldman sachs--a bond insurer 's $ 120 million lawsuit claiming goldman sachs & co###lied about###a pool of securities"
p158
atRp159
ag2
((lp160
S'nvidia--4.4 pct###be rises by###nvidia'
p161
atRp162
ag2
((lp163
S'nvidia--nvidia corp###posted###a 4.4 percent rise'
p164
atRp165
ag2
((lp166
S'apache--reuters ) - apache corp###reported###a quarterly loss'
p167
atRp168
a.