(lp1
c__builtin__
set
p2
((lp3
S"visa--visa inc , the world 's largest credit and debit card company###reported###a 7.8 percent rise"
p4
aS'visa--7.8 pct###be rises by###visa'
p5
atRp6
ag2
((lp7
S'cme--higher trading volumes###help###cme group beat profit estimate'
p8
atRp9
ag2
((lp10
S'colgate-palmolive--colgate-palmolive co###cut again###its profit forecast'
p11
atRp12
ag2
((lp13
S"american international--american international group inc 's first-quarter earnings###fell slightly as###low interest rates and weaker returns"
p14
atRp15
ag2
((lp16
S"marathon petroleum--the nation 's largest###be executives with###operator marathon petroleum"
p17
atRp18
ag2
((lp19
S"monsanto--monsanto , the world 's largest seed company has again approached switzerland 's syngenta in recent weeks with an offer###reported citing###people familiar"
p20
aS"monsanto--monsanto###has again approached switzerland 's syngenta in###recent weeks"
p21
aS'monsanto--monsanto###offers to buy again###syngenta'
p22
aS"monsanto--monsanto###has again approached switzerland 's syngenta with###an offer to buy the company"
p23
atRp24
ag2
((lp25
S'visa--visa###forecasts###current quarter profit'
p26
atRp27
ag2
((lp28
S'nasdaq--stocks###be led by###the nasdaq'
p29
atRp30
ag2
((lp31
S"bristol-myers squibb--its stroke prevention pill xarelto###may be losing market share to rival###bristol-myers squibb 's eliquis"
p32
atRp33
ag2
((lp34
S'salesforce--online customer relationship management firm salesforce###be bought .com###inc'
p35
aS'oracle--oracle ceo###sees###benefit'
p36
atRp37
ag2
((lp38
S'mckesson--mckesson###settles###investigation'
p39
atRp40
ag2
((lp41
S'apple--report of apple###finds###defective component'
p42
aS'apple--apple inc###had limited###availability of the apple watch'
p43
atRp44
ag2
((lp45
S'visa--visa###forecasts###current quarter profit'
p46
atRp47
ag2
((lp48
S'american international--american international group inc###fell slightly as###low interest rates and weaker returns'
p49
atRp50
ag2
((lp51
S'conocophillips--conocophillips###reported###lower quarterly profit hurt by a steep decline in crude oil prices'
p52
aS'conocophillips--conocophillips first quarter profit###falls sharply on###oil price decline'
p53
aS'conocophillips--conocophillips first quarter profit###falls sharply in###oil price decline'
p54
atRp55
ag2
((lp56
S'monsanto--monsanto###offers to buy again###syngenta'
p57
atRp58
ag2
((lp59
S'celgene--celgene revenue###rises less than expected due to###strong dollar'
p60
atRp61
ag2
((lp62
S'nike--case###to be push at###nike headquarters'
p63
atRp64
ag2
((lp65
S"boeing--faa###proposes fix in###boeing 's 787"
p66
aS"boeing--it###would ask###the operators boeing co 's model 787 airplanes to deactivate the plane 's electrical power system periodically"
p67
atRp68
ag2
((lp69
S'valero--valero ceo###sees growth###acquisitions'
p70
atRp71
ag2
((lp72
S'mcgraw hill--mcgraw hill education###prepares for###ipo sources'
p73
atRp74
ag2
((lp75
S'colgate-palmolive--colgate-palmolive co###reported###its third straight quarter of falling revenue'
p76
aS'colgate-palmolive--colgate-palmolive co###reported its third straight quarter of falling revenue as###a strong dollar'
p77
atRp78
ag2
((lp79
S'pfizer--pfizer###is###mystery bidder'
p80
aS'pfizer--pfizer###is mystery bidder for###rare disease drugmaker sobi sources'
p81
atRp82
ag2
((lp83
S'time warner cable--time warner cable###held###deal talks'
p84
aS'time warner--time warner cable###held###deal talks'
p85
atRp86
ag2
((lp87
S'general motors--general motors co on thursday###said of###it'
p88
aS'general motors--general motors###be co on###thursday'
p89
atRp90
ag2
((lp91
S'general motors--general motors co###to boost###production and vehicle quality'
p92
aS'general motors--general motors co###said on###manufacturing plants'
p93
atRp94
ag2
((lp95
S'american express--american express###told###it'
p96
atRp97
ag2
((lp98
S'salesforce--rival###bought###online customer relationship management firm salesforce .com inc'
p99
aS'oracle--oracle ceo###sees###benefit'
p100
atRp101
ag2
((lp102
S"apple--apple inc 's watch###has###the lowest ratio of hardware costs"
p103
aS"apple--apple inc 's watch###has the lowest ratio of hardware costs across###any apple phone"
p104
aS'apple--corrected official apple watch###has###lowest hardware cost'
p105
aS"apple--apple inc 's watch###has the lowest ratio of hardware costs to###retail price"
p106
atRp107
ag2
((lp108
S'comcast--comcast corp###withdrew###its bid to buy the company'
p109
atRp110
ag2
((lp111
S'first solar--first solar inc###reported###a quarterly loss'
p112
atRp113
ag2
((lp114
S'nike--case###to be push at###nike headquarters'
p115
aS'nike--president barack obama###will travel to###nike inc ( nke .n ) headquarters in oregon next friday to argue that a 12-nation pacific trade deal and the fast-track legislation needed to finalize the pact are good for workers'
p116
atRp117
ag2
((lp118
S'viacom--viacom inc###reported###better-than-expected quarterly profit'
p119
atRp120
ag2
((lp121
S'western union--western union###expects###pricing'
p122
atRp123
ag2
((lp124
S'apple--tattoo snafu###irks inked###apple watch wearers'
p125
atRp126
ag2
((lp127
S'goldman sachs--it###closed###a $ 50 million investment round led by goldman sachs and idg capital partners'
p128
aS'goldman sachs--a $ 50 million investment round###be led by###goldman sachs and idg capital partners'
p129
atRp130
ag2
((lp131
S'american express--u .s###be judge issues injunction against###american express'
p132
atRp133
ag2
((lp134
S'altera--a standstill agreement###be signed with###altera corp'
p135
aS"intel--intel 's standstill###expires in###june sources"
p136
atRp137
a.