c__builtin__
set
p1
((ltRp2
.c__builtin__
set
p1
((lp2
S'he###also complained###a significant gap'
p3
aS'ford motor co vice president ziad ojakli###said###a statement'
p4
aS'a two-seater built by the boeing corp.###be also known as###the goshawk'
p5
aS'harris###recently announced###her campaign'
p6
aS'drugs , chemicals and laboratory supplies###be makes by###merck'
p7
aS'a two-seater###be built by###the boeing corp'
p8
aS'merck###struck###the alliance'
p9
aS'southern copper###be controlled by###grupo mexico'
p10
aS"the two companies###will develop###merck 's so-called anti-pd-l1 agent"
p11
aS"the state 's southern border###turned to###a battleground"
p12
aS"may 23 peru###instituted a 60-day state of emergency in###a mineral-rich region roiled by deadly protests against southern copper corp 's stalled $ 1.4 billion tia maria project"
p13
aS'raytheon co , northrop grumman corp and lockheed martin corp###are competing to build###the new radar which is expected to cost just under $ 1 billion'
p14
aS'merck###struck the alliance over###cancer immunotherapy drugs'
p15
aS'a two-seater###be built by###the boeing corp.'
p16
aS'whose ruptured pipe###fouled###beaches and offshore waters'
p17
aS'ford motor co vice president ziad ojakli###said in###a statement'
p18
aS'merck###struck the alliance triggering###an upfront payment of $ 850 million'
p19
aS"a 60-day state of emergency###be instituted in###a mineral-rich region roiled by deadly protests against southern copper corp 's stalled $ 1.4 billion tia maria project"
p20
aS'tia maria###be project of###southern copper corp'
p21
aS'she###is already working from###the office of kamala harris'
p22
aS'southern copper controlled by grupo mexico###has promised to build###a desalinisation plant'
p23
aS'southern copper controlled by grupo mexico###to build###a desalinisation plant'
p24
aS'harris###said###a statement'
p25
aS'merck###posted###group sales of 11.3 billion euros'
p26
aS'a two-seater built by the boeing corp###be also known as###the goshawk'
p27
aS"merck 's so-called anti-pd-l1 agent###will be develop as###a single therapy"
p28
aS'merck###said in###this week'
p29
aS"germany 's merck###expects###drug division to drive growth"
p30
aS'harris###said in###a statement'
p31
aS"the state 's southern border###turned into###a battleground"
p32
atRp33
.