(lp1
c__builtin__
set
p2
((lp3
S'time warner cable--charter###agrees to buy###time warner cable'
p4
aS'time warner--charter###agrees to buy###time warner cable'
p5
atRp6
ag2
((lp7
S'lockheed martin--military and spy satellites ending a monopoly###be a joint venture of###lockheed martin corp and boeing co'
p8
aS'boeing--military and spy satellites ending a monopoly###be a joint venture of###lockheed martin corp and boeing co'
p9
atRp10
ag2
((lp11
S'google--obama administration###asks to decline###google copyright appeal'
p12
aS'google--the obama administration###sided against###google inc'
p13
atRp14
ag2
((lp15
S'priceline--ctrip.com###will issue convertible bonds to###priceline'
p16
aS'priceline--convertible bonds###will be issue to###priceline'
p17
atRp18
ag2
((lp19
S'amazon--amazon###pays###$ 16 million tax'
p20
atRp21
ag2
((lp22
S"gap--brazil 's current account gap###widens to###$ 6.9 bln"
p23
aS"gap--brazil 's current account gap###widens in###april"
p24
atRp25
ag2
((lp26
S'gap--banks###to handle its return to the international bond market after###a gap of five years'
p27
aS'gap--its return###to be handle after###a gap of five years'
p28
atRp29
ag2
((lp30
S"gap--brazil 's current account gap###widens to###$ 6.9 bln"
p31
aS'gap--26 brazil###may posted a current account deficit of $ 6.901 billion in april widening from###a gap of $ 5.736 billion in march and in line'
p32
aS'gap--26 brazil###may posted a current account deficit of $ 6.901 billion in april widening in###a gap of $ 5.736 billion in march and in line'
p33
aS"gap--brazil 's current account gap###widens in###april"
p34
atRp35
ag2
((lp36
S'google--26 the obama administration###be sided against###google inc'
p37
aS'google--obama administration###asks top court not to hear###google copyright fight'
p38
atRp39
ag2
((lp40
S'lockheed martin--military and spy satellites ending a monopoly###be a joint venture of###lockheed martin corp and boeing co'
p41
aS'boeing--military and spy satellites ending a monopoly###be a joint venture of###lockheed martin corp and boeing co'
p42
atRp43
ag2
((lp44
S'lorillard--26 reynolds###may won###antitrust approval to buy smaller rival lorillard in a deal that would combine the no'
p45
atRp46
ag2
((lp47
S'aes--philippines###be the local unit of###aes'
p48
aS'aes--philippines press aes###may bid for###malampaya banked gas standard'
p49
atRp50
ag2
((lp51
S'time warner cable--time warner cable###killed###a proposed takeover'
p52
aS'time warner--time warner cable###killed###a proposed takeover'
p53
atRp54
ag2
((lp55
S'google--the obama administration###be sided against###google inc'
p56
aS'google--obama administration###asks to decline###google copyright appeal'
p57
atRp58
ag2
((lp59
S'cisco--u .s###be top court rules against###cisco systems'
p60
atRp61
ag2
((lp62
S'lorillard--u###.s###antitrust approval to buy smaller rival lorillard in a deal that would combine the no'
p63
atRp64
ag2
((lp65
S'cisco--u .s###be top court rules against###cisco systems'
p66
atRp67
ag2
((lp68
S'lockheed martin--military and spy satellites ending a monopoly###be a joint venture of###lockheed martin corp and boeing co'
p69
aS'boeing--military and spy satellites ending a monopoly###be a joint venture of###lockheed martin corp and boeing co'
p70
atRp71
ag2
((lp72
S'waters--lighthouses###be build in###disputed waters'
p73
atRp74
ag2
((lp75
S'waters--lighthouses###be build in###disputed waters'
p76
atRp77
ag2
((lp78
S'coca-cola--it###be an it manager at###a subsidiary of coca-cola co'
p79
atRp80
ag2
((lp81
S'apple--26 firefighters###may fought local station abc15 reported###a blaze that erupted at an apple inc facility in mesa , arizona on tuesday'
p82
aS'apple--fire###extinguished at###apple site'
p83
aS'apple--a blaze###erupted at###an apple inc facility'
p84
atRp85
ag2
((lp86
S'amazon--amazon###pays###$ 16 mln tax'
p87
atRp88
ag2
((lp89
S'cisco--u .s###be top court rules against###cisco systems'
p90
atRp91
ag2
((lp92
S'goldman sachs--26 goldman sachs###may has named###kate richdale and andrea vella'
p93
aS'goldman sachs--26 goldman sachs###may has named kate richdale as###its new co-heads of investment banking'
p94
aS'goldman sachs--26 goldman sachs###may has named andrea vella as###its new co-heads of investment banking'
p95
atRp96
ag2
((lp97
S"aes--bulgaria 's beh###considers###$ 550 mln loan to pay aes"
p98
atRp99
a.