c__builtin__
set
p1
((lp2
S'oi--oi###is working to###patch'
p3
aS'ge--ge###would offer concessions to win###eu approval'
p4
aS'oi--oi###got control of the angolan asset in###a merger'
p5
aS'ge--ge###to gain###lucrative revenue'
p6
aS'ge--ge###already altered###the deal'
p7
aS'ge--ge###would offer###concessions'
p8
aS'ge--ge###would offer concessions to win###eu approval of alstom deal'
p9
aS'oi--oi###is also pressing###anatel'
p10
aS'oi--oi###hired investment bank btg pactual in###last year'
p11
aS'oi--oi###could raise###less cash'
p12
aS'oi--oi###reduce###personnel'
p13
aS"ge--ge###already altered the deal to win###the french government 's backing"
p14
aS'ge--ge###was focused on###"how to move'
p15
aS'fox--fox###said in###february'
p16
aS'oi--oi###spends###300 million reais'
p17
aS'oi--oi###hired investment bank btg pactual to negotiate###a bid to acquire brazilian mobile carrier tim participaes ( timp3.sa ) and split it three ways with the local units of telefonica ( tef.mc ) ( vivt4.sa ) and america movil ( amxl.mx )'
p18
aS'oi--oi###to reconsider###service requirements'
p19
aS"fox--fox###be owned by###rupert murdoch 's twenty-first century fox inc"
p20
aS'oi--oi###has been struggling with###a massive debt load and mounting losses'
p21
aS'oi--oi###spends 300 million reais per year on###phone booths that generate just 17 million reais in revenue'
p22
aS'ge--ge###said on###monday'
p23
aS'oi--oi###hired###investment bank btg pactual'
p24
aS'oi--oi###got###control of the angolan asset'
p25
aS'oi--oi###is also pressing anatel to reconsider###service requirements'
p26
atRp27
.c__builtin__
set
p1
((lp2
S'tesoro--may 11 tesoro corp###has canceled###a crude pipeline project'
p3
aS'nasdaq--the nasdaq composite###lost 9.98 points , or 0.2 percent to###4,993.57.'
p4
aS'nasdaq--the nasdaq composite###added 4.42 points , or 0.09 percent , to###5,007.97'
p5
aS'morgan stanley--morgan stanley###will maintain###its client-facing oil trading business'
p6
aS'eqt--eqt midstream###was floated a 6.67 % yield to the us$ 21 pricing of 14.375m units by###eqt'
p7
aS'netflix--netflix tax###would level###the playing field'
p8
aS"morgan stanley--may 11 castleton commodities###has agreed to buy###morgan stanley 's physical oil business"
p9
aS'abbvie--abbvie###to finance###its acquisition of pharmacyclics'
p10
aS'eqt--eqt midstream###was floated###a 6.67 % yield'
p11
aS'tesoro--tesoro###increased###waxy crude processing capability'
p12
aS"morgan stanley--castleton commodities international###will buy###morgan stanley 's physical oil business"
p13
aS'citigroup--1.usa.gov/1j5s7f9 ) citigroup###is###one of six major banks'
p14
aS'hormel foods--a squeeze###be feeling to###hormel foods corp unit jennie-o turkey store'
p15
aS'chevron--the chevron concession###was renewed by###riyadh'
p16
aS'southern--the supposed author whose name is listed as that of an attorney with an address in huntington beach in southern california###has not responded to###media requests'
p17
aS'morgan stanley--morgan stanley###used###about 100 oil tankers 2014 the number had declined to 10-15 a month'
p18
aS'target--co###raised###its price target'
p19
aS'lockheed martin--united launch alliance###be a joint venture of###lockheed martin corp and boeing co'
p20
aS'allergan--the allergan business###was will provide earnings reliability to###the actavis business'
p21
aS'apple--apple###paid 10bp in###nics and shell 11bp-16bp'
p22
aS'southern--residents of the southern port of mukalla###said###an apparent american drone strike'
p23
aS'allergan--sales of allergan products###rose###13 percent'
p24
aS'nasdaq--the nasdaq composite###lost###9.98 points , or 0.2 percent'
p25
aS'morgan stanley--morgan stanley###said###a report'
p26
aS'u.s. dollar--the u.s. dollar###rose on###monday'
p27
aS'bank of america--the sale of 90 million shares###be jointly marketed by###deutsche bank , bank of america merrill lynch and citigroup'
p28
aS'general motors--united auto workers officials###are considering###a plan to encourage the detroit three auto makers - general motors co , ford motor co and fiat chrysler automobiles nv - to add thousands of jobs'
p29
aS'eqt--higher-gearing eqt midstream###is targeting distribution growth of 20 % annually via###a mixture of organic projects'
p30
aS'gap--california transportation department###sees###$ 5.7 bln yearly funding gap'
p31
aS'noble energy--rosetta resources###soared 27.45 percent after###noble energy'
p32
aS'verizon communications--80 percent###be owns by###larger u.s. rivals at&t inc and verizon communications inc. sprint'
p33
aS'harris--california attorney general kamala harris###asked a superior court in###sacramento'
p34
aS'eqt--parent eqt###is using the us$ 621m raised to help###fund capex'
p35
aS'southern--the ruling###comes before###the southern california city of san bernardino'
p36
aS'chevron--chevron spokeswoman sally jones###said###an emailed statement'
p37
aS'american airlines--american airlines , united airlines , frontier airlines and spirit airlines###were among###the carriers facing the largest number of flight-problem complaints'
p38
aS'nasdaq--the nasdaq composite###was recording###61 new highs and 33 new lows'
p39
aS'harris--california attorney general kamala harris###asked a superior court for###permission to refuse to prepare the summary for this measure'
p40
aS'allergan--allergan business###to drive###2015 growth'
p41
aS'abbvie--apple , shell and abbvie###blitzed the us bond market in###just two days'
p42
aS'citigroup--the sale of 90 million shares jointly marketed by deutsche bank , bank of america merrill lynch and citigroup###was also###unusual'
p43
aS'noble energy--rosetta shareholders###will receive###0.542 noble energy shares'
p44
aS'morgan stanley--morgan stanley###said in###a report'
p45
aS'nasdaq--the nasdaq composite###added###4.42 points , or 0.09 percent'
p46
aS'goldman sachs--goldman sachs###said in###a research report'
p47
aS'chevron--the chevron concession###was renewed until###2039'
p48
aS'nasdaq--the nasdaq composite###recorded###66 new highs and 40 new lows'
p49
aS'alcoa--alcoa###expects to record a restructuring charge in###2015'
p50
aS'alcoa--alcoa###said in###a statement'
p51
aS'nasdaq--the nasdaq composite###added###0.04 points , or 0 percent'
p52
aS'morgan stanley--update 2-castleton###joins oil trade titans with###morgan stanley deal'
p53
aS'ford motor--united auto workers officials###are considering###a plan to encourage the detroit three auto makers - general motors co , ford motor co and fiat chrysler automobiles nv - to add thousands of jobs'
p54
aS'target--its price target###be raised on###the stock'
p55
aS'morgan stanley--a joint venture of morgan stanley###had partnered with###mysolar ix llc'
p56
aS'eqt--eqt corp###managed to get###the tightest pricing'
p57
aS'bank of america--mark garcia###be a semiconductor specialist from###bank of america'
p58
aS'tesoro--may 11 tesoro corp###has canceled a crude pipeline project in utah because of###low oil prices and economic challenges'
p59
aS'target--actual price inflation which remains low###will rebound to###its 2-percent target'
p60
aS'citigroup--citigroup###had countered with###an offer'
p61
aS'chevron--sally jones###be spokeswoman of###chevron'
p62
aS"morgan stanley--the group 's global headcount###is expected with###the morgan stanley team"
p63
aS'alcoa--alcoa###to close anglesea coal mine###power station'
p64
aS'u.s. dollar--u.s. dollar notches###be third straight gain against###euro'
p65
aS'eqt--eqt corp###to get###the tightest pricing'
p66
aS"marathon petroleum--negotiations###also are continuing between###striking workers and marathon petroleum corp 's galveston bay refinery"
p67
aS'goldman sachs--goldman sachs inc###has been ordered to pay $ 80 million , plus interest to###the national australia bank'
p68
aS'tesoro--tesoro###did not disclosed###the projected cost'
p69
aS'tesoro--tesoro###increased waxy crude processing capability to###22,000 bpd'
p70
aS'chevron--saudi chevron###told its partner in###last month'
p71
aS"noble energy--noble energy 's $ 2 billion rosetta deal###reopens###u.s. shale oil m&a"
p72
aS'boeing--united launch alliance###be a joint venture of###lockheed martin corp and boeing co'
p73
aS'target--it###can head toward###its target'
p74
aS'alcoa--alcoa inc###said on###monday'
p75
aS'nasdaq--the nasdaq composite .ixic###dropped 9.98 points , or 0.2 percent , to###4,993.57.'
p76
aS'target--its price target###be raised following###a shortage of egg-laying hens'
p77
aS"target--inflation###hit its lowest closer to###the bottom end of the central bank 's 2-4 percent target range"
p78
aS'jpmorgan chase--louis dreyfus group and a hedge fund###be owned by###jpmorgan chase'
p79
aS'lockheed martin--big u.s. military and spy satellites###be now launches by###a joint venture of lockheed martin corp'
p80
aS'citigroup--the sale of 90 million shares###be jointly marketed by###deutsche bank , bank of america merrill lynch and citigroup'
p81
aS'nasdaq--the nasdaq composite###slid 3.76 points , or 0.18 percent , to###2,112.34'
p82
aS'southern--it###was piloting cash payments for cabs in###the southern indian city of hyderabad'
p83
aS'citigroup--citigroup inc###said in###madhur deora'
p84
aS'noble energy--27.45 percent###be soared after###noble energy'
p85
aS'tesoro--tesoro###recently finished the second phase of a $ 275 million conversion project at###its 58,000 barrels-per-day refinery'
p86
aS'nasdaq--apple###was the biggest drag on###the s&p 500 and the nasdaq'
p87
aS'target--a missile###to guide to be###its target'
p88
aS'chevron--a deal###be reached as###chevron'
p89
aS'tesoro--tesoro corp###has canceled a crude pipeline project in utah because of###low oil prices and economic challenges'
p90
aS'apple--apple###was the biggest drag on###the nasdaq'
p91
aS"u.s. dollar--it###'s really###u.s. dollar strength"
p92
aS'anadarko petroleum--the san juan gas processing plant farmington , new mexico and pipelines###traversing utah from###anadarko petroleum corp 2015 *launches'
p93
aS'morgan stanley--castleton###joins oil trade titans with###morgan stanley deal'
p94
aS'amazon.com--a company###be owned by###amazon.com founder jeff bezos'
p95
aS'morgan stanley--the morgan stanley deal###will vault 45 oil storage leases for some 30 million barrels , as many as 200 staff from the biggest physical oil desk on wall street , into###the big leagues'
p96
aS'nasdaq--the nasdaq composite###lost###3.34 points , or 0.07 percent'
p97
aS'citigroup--citigroup###also left###its estimate of potential unreserved litigation costs unchanged'
p98
aS'allergan--sales of allergan products###rose 13 percent in###the first quarter'
p99
aS'apple--the likes of apple inc###to restructure their businesses to escape###huge penalties'
p100
aS'u.s. dollar--the u.s. dollar###stood little changed 119.905 against###the yen'
p101
aS'nasdaq--the nasdaq composite###lost 3.43 points , or 0.07 percent , to###5,000.12'
p102
aS'tesoro--tesoro corp###has canceled###a crude pipeline project'
p103
aS'alcoa--alcoa###to record a restructuring charge in###2015'
p104
aS'ca--he###asked###the state republican party to pay for the stadium concessionary expenses in 2012 so that "people ca n\'t make the argument that we \'re using taxpayer money for anything'
p105
aS'abbvie--apple , shell and abbvie###blitzed###the us bond market'
p106
aS'harris--california attorney general kamala harris###asked a superior court in###march'
p107
aS'apple--apple inc###has pledged to create###enough energy'
p108
aS'apple--apple , shell and abbvie###blitzed###the us bond market'
p109
aS'tesoro--tesoro###recently finished###the second phase of a $ 275 million conversion project'
p110
aS'allergan--sales of allergan products for 15 days and the drugs acquired with the forest laboratories###deal helped###actavis beat revenue estimate'
p111
aS'morgan stanley--morgan stanley , credit suisse and ubs investment bank###are among###the underwriters'
p112
aS'general motors--volvo###also faces tougher indigenous competition from the resurgent lincoln and cadillac brands as###parents ford and general motors'
p113
aS'allergan--the allergan business###was will provide###notable strength and earnings reliability'
p114
aS'u.s. dollar--u.s. dollar strength###was the default bid for###nonfarm number'
p115
aS'allergan--sales of allergan products for 15 days and the drugs###be acquired with###the forest laboratories'
p116
aS'chevron--saudi chevron###told###its partner'
p117
aS'anadarko petroleum--utah and new mexico###be traversing from###anadarko petroleum corp 2015 *launches'
p118
aS'allergan--sales of allergan products for 15 days and the drugs acquired with the forest laboratories###deal helped actavis beat revenue estimate in###the quarter'
p119
aS"harris--the court###has not yet responded to###harris 's request"
p120
aS'apple--apple , shell and abbvie###blitzed the us bond market in###just two days'
p121
aS'allergan--actavis###said###sales of allergan products'
p122
aS'general electric--general electric co executive###said on###monday'
p123
aS'nasdaq--the nasdaq composite###slid 10.77 points , or 0.51 percent , to###2,105.33'
p124
aS'target--research firm sidoti###raised###its price target'
p125
aS'alcoa--alcoa###said###a statement'
p126
aS'noble energy--27.19 percent###be soared after###noble energy'
p127
aS'chevron--chevron spokeswoman sally jones###said in###an emailed statement'
p128
aS'goldman sachs--morgan stanley and goldman sachs###did not respond to###requests'
p129
aS'eqt--eqt affiliate###achieves###tightest-ever yield'
p130
aS'u.s. dollar--u.s. dollar###set for###third straight session of gains'
p131
aS'morgan stanley--oil and gas m&a###set###morgan stanley'
p132
aS"noble energy--0.542 noble energy shares###will be receive for###each share held , or $ 26.62 per share , based on noble 's closing price of $ 49.12 on friday"
p133
aS'goldman sachs--goldman sachs inc###has been ordered to pay $ 80 million , plus interest for###breaches associated with the sale of mortgage-linked securities'
p134
aS"waters--the north 's missile-equipped submarines###could reach###japanese waters"
p135
aS'boeing--boeing co###holds###its annual investor conference'
p136
aS'alcoa--alcoa###expects to record###a restructuring charge'
p137
aS'southern--the southern california city of san bernardino###produces###its bankruptcy exit plan which , if confirmed , would appear to clear the way for the city to slash its bondholder debt'
p138
aS'apple--apple###that paid###10bp'
p139
aS"citigroup--the doj###had been pressing###citigroup 's main unit"
p140
aS"morgan stanley--castleton commodities international###will buy oldest###morgan stanley 's physical oil business"
p141
aS'nasdaq--the nasdaq composite###added 0.04 points , or 0 percent , to###5,003.58'
p142
aS'apple--apple###was the biggest drag on###the s&p 500 and the nasdaq'
p143
aS'eqt--eqt gp###sold 27m at an initial yield of just 1.36 %###23m units'
p144
aS'allergan--the allergan business###was will provide notable strength to###the actavis business'
p145
aS'alcoa--alcoa###to close power station###anglesea coal mine'
p146
aS'morgan stanley--neither morgan stanley###released###terms of the transaction'
p147
aS"morgan stanley--the deal###does not include###morgan stanley 's client-facilitation oil trading business or any of its commodities operations"
p148
aS'general electric--general electric co###said for###the first time'
p149
aS'harris--california attorney general kamala harris###asked###a superior court'
p150
aS'eqt--eqt midstream###was floated a 6.67 % yield to the us$ 21 pricing of 14.375m units in###june 2012'
p151
aS'citigroup--citigroup###left###its estimate of potential unreserved litigation costs unchanged'
p152
aS"tesoro--tesoro###had proposed###the pipeline to move black waxy crude produced in utah 's uinta basin to salt lake city-area refineries"
p153
aS'nasdaq--the nasdaq composite###dropped 9.98 points , or 0.2 percent , to###4,993.57.'
p154
aS'halliburton--services###be pumping from###halliburton'
p155
aS'nasdaq--the nasdaq composite###lost 3.34 points , or 0.07 percent , to###5,000.21'
p156
aS'eaton--he###owns high-yield issuers pacific rubiales in###his $ 2 billion eaton vance bond fund'
p157
aS'u.s. dollar--the u.s. dollar###rose against###the euro'
p158
aS'noble energy--rosetta resources###soared 27.19 percent after###noble energy'
p159
aS'noble energy--noble energy###to buy###rosetta resources'
p160
aS'apple--apple###was###the biggest drag'
p161
aS'at&t--80 percent###be owns by###larger u.s. rivals at&t inc and verizon communications inc. sprint'
p162
aS'chevron--chevron###has had###a lease'
p163
aS'nasdaq--the nasdaq composite###lost 10.77 points , or 0.51 percent , to###2,105.33'
p164
aS'tesoro--tesoro###cancels###utah crude pipeline project'
p165
aS'nasdaq--the nasdaq composite###dropped###9.98 points , or 0.2 percent'
p166
aS'anadarko petroleum--the acquisition of patara oil###*acquires###the san juan gas processing plant farmington , new mexico and pipelines traversing utah and new mexico from anadarko petroleum corp 2015 *launches global physical base metals trading business ( reporting by josephine mason'
p167
aS'southern--residents of the southern port of mukalla###said on###monday evening'
p168
aS'morgan stanley--morgan stanley and goldman sachs###did not respond to###requests'
p169
aS'eqt--higher-gearing eqt midstream###is targeting distribution growth of 20 % annually through###2017'
p170
aS'nasdaq--cfo adena friedman###returned to###nasdaq omx group inc'
p171
aS"target--its lowest###be hit closer to###the bottom end of the central bank 's 2-4 percent target range"
p172
aS'apple--the likes of apple inc###to restructure###their businesses'
p173
aS'goldman sachs--goldman sachs###said###a research report'
p174
aS'chevron--chevron , kuwaiti and saudi oil officials###could not immediately be reached for###comment'
p175
aS'eqt--parent eqt###to help###fund capex'
p176
aS'nasdaq--apple###was the biggest drag on###the nasdaq'
p177
aS'amazon.com--jeff bezos###be founder of###amazon.com'
p178
aS'chevron--chevron spokeswoman sally jones###said on###monday'
p179
aS"eqt--eqt gp 's only assets###are interests in###eqt midstream"
p180
aS'nasdaq--the nasdaq composite###slid 4.66 points , or 0.22 percent , to###2,111.44'
p181
aS'target--north korean submarines###to manage###the radar and tracking systems required to guide a missile to its target'
p182
aS'apple--apple###says###fuel cells , geothermal and small hydropower plants - equivalent'
p183
aS'eqt--eqt midstream###was floated a 6.67 % yield to the us$ 21 pricing of 14.375m units with###an initial quarterly distribution of 35 cents'
p184
aS'morgan stanley--morgan stanley###used about 100 oil tankers a month , by 2014 the number had declined to 10-15 a month to###charter'
p185
aS'eqt--the ipo###represents in###eqt gp'
p186
aS'target--inflation###to return to###its 2 percent target'
p187
aS'nasdaq--the nasdaq composite###lost###3.43 points , or 0.07 percent'
p188
aS'hormel foods--jennie-o turkey store###be unit of###hormel foods corp'
p189
aS'noble energy--noble energy inc###said on###monday'
p190
aS'chevron--the chevron concession###was renewed in###2009'
p191
aS'general electric--general electric co###said on###monday'
p192
aS'nasdaq--the nasdaq composite###slid 9.72 points , or 0.46 percent , to###2,106.38'
p193
aS'goldman sachs--hudson mezzanine funding 2006-1###masked###goldman sachs \'s " significant conflict of interest'
p194
aS'noble energy--rosetta resources rose.o###soared###27.19 percent)[enabler=after noble energy ( nbl.n '
p195
aS'morgan stanley--the deal###will not be material for###morgan stanley'
p196
aS'morgan stanley--) morgan stanley oil business###sold for###$ 1 bln'
p197
aS'bank of america--the sale of 90 million shares jointly marketed by deutsche bank , bank of america merrill lynch and citigroup###was also###unusual'
p198
aS'abbvie--abbvie###issued us$ 16.7bn to finance###its acquisition of pharmacyclics'
p199
aS'morgan stanley--the morgan stanley deal###will vault it into###the big leagues'
p200
aS'morgan stanley--the morgan stanley deal###will vault it###45 oil storage leases for some 30 million barrels , as many as 200 staff from the biggest physical oil desk on wall street , and an unidentified number of oil supply'
p201
aS'apple--apple###that paid in###nics and shell 11bp-16bp'
p202
aS"target--mindbody 's filing###included###a nominal fundraising target of about $ 100 million"
p203
aS'u.s. dollar--the u.s. dollar###rose on###renewed worries'
p204
aS'southern--cash payments###was piloting in###the southern indian city of hyderabad'
p205
aS'allergan--allergan business###contributed $ 258 million to###actavis net revenue'
p206
atRp207
.