c__builtin__
set
p1
((lp2
S'ed--ed###won by###a hair'
p3
aS'gm--gm###to storm india as###korea costs climb'
p4
aS'gm--gm###lost###38.5 billion rupees'
p5
aS'ed--ed###won in###the fourth'
p6
aS'gm--gm###set to storm###india'
p7
aS'ed--ed###secured###the support of trade unions'
p8
aS'gm--gm###be joined from###volvo cars'
p9
aS'gm--gm###set to storm india as###korea costs climb'
p10
aS'gm--gm###already plans to launch###two "image building " models'
p11
aS'gm--gm###to storm###india'
p12
aS'gm--gm###be joined in###2013'
p13
atRp14
.c__builtin__
set
p1
((lp2
S'wells fargo--saturday###be a stagecoach from###wells fargo'
p3
aS'walt disney--walt disney co###announced###the plans'
p4
aS'morgan stanley--analyst valuations###vary widely with###morgan stanley'
p5
aS"time warner--hbo , owned by time warner inc , and cbs corp 's showtime###did not immediately respond to###requests"
p6
aS'time warner--execs###reach out to###time warner cable'
p7
aS'southern--an arab ground force###arrived in###the southern yemeni city of aden'
p8
aS'conocophillips--may 3 myanmar###has awarded contracts to###international oil majors statoil and conocophillips'
p9
aS'progressive--mcdonald###to be remake as###a "modern , progressive burger company'
p10
aS'target--the second target of the operations###be conducted by###the pnp-saf'
p11
aS'coca-cola--they###downed###coca-cola'
p12
aS'nasdaq--the nasdaq composite index###also hit###a record'
p13
aS'general electric--summit###has provided###80 percent and the rest 20 percent comes from general electric'
p14
aS'general motors--general motors###aims to grab at least 5 percent market share in india within###the next decade'
p15
aS'time warner--time warner cable###was open to###merger discussions'
p16
aS'southern--ali al-ahmadi###be spokesman for###the southern popular resistance'
p17
aS'southern--the southern state###merged with###north yemen'
p18
aS"time warner--the companies ' bitter exchanges###ended with###time warner cable"
p19
aS'time warner--time warner###had found###a white knight'
p20
aS"time warner--the report###comes after###the companies ' bitter exchanges that ended with time warner cable rejecting charter 's unsolicited approaches last year , when time warner had found a white knight in comcast corp ( cmcsa.o )"
p21
aS"coca-cola--their five hours of shareholder and investor questions###be answered from###a stage where they downed coca-cola and munched on peanut brittle from see 's"
p22
aS'time warner--a bigger quarterly loss###be hurt by###costs related to the failed deal between comcast and time warner that involved assets charter was planning to buy'
p23
aS'southern--a sharp reminder of the extent of human trafficking###be the discovery of###a camp hidden deep in the jungle in southern thailand , a regional human trafficking hub'
p24
aS"time warner--john malone###called###time warner cable 's chief executive officer rob marcus"
p25
aS'target--usman###was###the second target of the operations conducted by the pnp-saf to capture zulkifli bin hir , alias marwan last jan . 25'
p26
aS'general motors--general motors###aims to grab###at least 5 percent market share'
p27
aS"time warner--the report###comes after###the companies ' bitter exchanges that ended with time warner cable rejecting charter 's unsolicited approaches last year , when time warner had found a white knight in comcast corp. last week"
p28
aS"coca-cola--buffett and his chief lieutenant###answered their five hours of shareholder and investor questions from###a stage where they downed coca-cola and munched on peanut brittle from see 's"
p29
aS'southern--twenty-six bodies exhumed at a mass grave near a suspected human trafficking camp in southern thailand###do not bear###signs of violent death'
p30
aS'southern--an arab ground force###arrived###the southern yemeni city of aden'
p31
aS'southern--the newspaper###is linked to###southern separatists demanding the restoration of the southern state'
p32
aS'u.s. dollar--the weakest reading###be hurt by###both weak crude oil prices and a strong u.s. dollar'
p33
aS'time warner--time warner cable###was###open'
p34
aS"chipotle mexican grill--its desire###to be all things to###all people .rivals such aswendy 's co ( wen.o ) , which has wooed hard-core fast-food fans with more indulgent dishes , and chipotle mexican grill inc ( cmg.n ) ,"
p35
aS'microsoft--microsoft co-founder###be joining in###a newspaper tossing contest'
p36
aS'time warner--time warner###had found in###comcast corp. last week'
p37
aS'southern--the southern state###merged in###1990'
p38
aS'chevron--the field###is operated by###chevron'
p39
aS'general electric--20 percent###comes from###general electric'
p40
atRp41
.