c__builtin__
set
p1
((lp2
S'key--key###be rattled by###persistent tensions'
p3
atRp4
.c__builtin__
set
p1
((lp2
S'coach--coach bill belichick###be head of###patriots'
p3
aS'northrop grumman--it###got for###a new long-range radar won by raytheon but challenged by rivals lockheed martin corp and northrop grumman corp , lockheed'
p4
aS'southern--a loosely organized trucker protest###disrupted in###the southern and midwestern farm belts'
p5
aS'morgan stanley--morgan stanley###will maintain###its client-facing oil trading business'
p6
aS'at&t--at&t###has not yet met with###fcc reviewers'
p7
aS'nasdaq--declining issues###fell on###the nasdaq'
p8
aS"metlife--metlife 's complaints###would frustrate###the express statutory purpose of the council"
p9
aS'cisco systems--cisco systems inc###be maker of###network equipment'
p10
aS"target--japan 's government###also set###a new target reducing its primary budget deficit to 1 percent of gross domestic product in fiscal 2018"
p11
aS'morgan stanley--morgan stanley###used###about 100 oil tankers 2014 the number had declined to 10-15 a month'
p12
aS'apple--apple###sold more iphones in china than in the united states in###the first three months of the year'
p13
aS"boeing--investors###are focused on###boeing 's volatile cash flow"
p14
aS'metlife--metlife###was significantly interconnected with###other financial companies'
p15
aS'danaher--potential buyers###include###u.s. healthcare group danaher corp'
p16
aS'apple--apple inc###joined that effort in###last week'
p17
aS'nasdaq--the nasdaq composite###dropped 17.38 points , or 0.35 percent , to###4,976.19'
p18
aS'nasdaq--the nasdaq composite###dropped 1.95 points , or 0.04 percent , to###4,991.63'
p19
aS'devon energy--devon energy corp.###pumped 272,000 bpd of oil in###the first quarter'
p20
aS'staples--staples names###slipped apiece###1.1 percent'
p21
aS'johnson & johnson--bavarian nordic executives###have sounded upbeat because of###upfront cash of $ 25 million from johnson & johnson and $ 60 million'
p22
aS'eog resources--eog resources and whiting petroleum corp###maintained###production forecasts'
p23
aS'apple--apple###sold###more iphones'
p24
aS"target--inflation###will rise to###the u.s. central bank 's 2-percent target"
p25
aS"colgate-palmolive--henkel###has agreed to acquire###colgate-palmolive 's entire range of laundry detergents"
p26
aS'apple--apple pay###was launched in###the united states'
p27
aS'nasdaq--1,272###fell on###the nasdaq'
p28
aS'american airlines--american airlines###said in###tuesday'
p29
aS'u.s. dollar--the heavily weighted energy sector###slipped itself in###a function of a weaker u.s. dollar'
p30
aS'nasdaq--the nasdaq composite###dropped###16.34 points , or 0.33 percent'
p31
aS'coach--brady and coach belichick###have combined###both nfl records'
p32
aS'nasdaq--the nasdaq composite###dropped###17.38 points , or 0.35 percent'
p33
aS'apple--apple inc###announced in###last year'
p34
aS'apple--may 12 apple inc###is in###talks with chinese banks and alibaba group holding ltd'
p35
aS'johnson & johnson--the cash injection###is###another boost for the young pharmaceutical company which struck milestone deals with giants johnson & johnson in october for the development of the ebola vaccine , and with'
p36
aS'metlife--metlife###was systemically###important'
p37
aS'goldman sachs--goldman sachs inc###has been ordered to pay $ 80 million , plus interest to###the national australia bank'
p38
aS'progressive--whose left-wing new democratic party###ended###the 44-year rule of the right-wing progressive conservatives'
p39
aS"colgate-palmolive--colgate-palmolive 's entire range of laundry detergents###to be acquire for###220 million euros"
p40
aS'coach--head coach sean payton###was suspended###the entire 2012 season and general manager mickey loomis'
p41
aS'metlife--the case###is###metlife inc'
p42
aS'boeing--boeing###has###plans to use that capacity'
p43
aS'metlife--metlife###has said of###it and some other life insurers'
p44
aS'perrigo--perrigo sweeteners###to make###deal'
p45
aS'raytheon--raytheon###beat out lockheed to develop###a replacement'
p46
aS'raytheon--raytheon###beat out northrop to develop###a replacement'
p47
aS'delta air lines--air france-klm , delta air lines and alitalia###secured###eu antitrust approval'
p48
aS'at&t--at&t###was not immediately available for###comment'
p49
aS"morgan stanley--the group 's global headcount###is expected with###the morgan stanley team"
p50
aS'raytheon--raytheon###sued###the air force'
p51
aS'raytheon--a federal judge###has dismissed###a lawsuit filed by raytheon co'
p52
aS'boeing--boeing chief executive jim mcnerney###said###market fundamentals'
p53
aS'coach--patriots head coach bill belichick###was fined $ 500,000 in###2007'
p54
aS'exxon mobil--an exxon mobil representative###declined to comment on###the current status of the unit'
p55
aS'apple--we###to get###apple pay'
p56
aS'raytheon--raytheon###sued the air force in###january'
p57
aS'marathon oil--occidental petroleum corp and marathon oil corp. houston-based conocophillips###had recommended###a vote'
p58
aS"boeing--he###also said of###boeing 's defense business"
p59
aS'perrigo--mylan###to buy###over-the-counter drugmaker perrigo'
p60
aS'exxon mobil--an exxon mobil representative###to comment on###the current status of the unit'
p61
aS"noble energy--noble energy 's $ 2 billion rosetta deal###reopens###u.s. shale oil m&a"
p62
aS'apple--information###be collected during###sales of apple products'
p63
aS'apple--apple inc###announced###haier'
p64
aS'apple--apple ( aapl.o ) , the biggest contributor###be declined 0.36 percent. to###losses'
p65
aS'eog resources--eog resources and whiting petroleum corp###maintained production forecasts from###this year'
p66
aS'u.s. dollar--the u.s. dollar###slumped against###the euro and swiss franc.'
p67
aS'metlife--york-based metlife###is best known in###the life insurance business'
p68
aS'nasdaq--the nasdaq composite .ixic###dropped 17.38 points , or 0.35 percent , to###4,976.19'
p69
aS"boeing--boeing 's defense business###would be at###the right scale"
p70
aS'jpmorgan chase--louis dreyfus group and a hedge fund###be owned by###jpmorgan chase'
p71
aS'verizon communications--18.62 percent###be jumped after###verizon communications'
p72
aS'american airlines--american airlines###said on###tuesday'
p73
aS'lockheed martin--big u.s. military and spy satellites###be now launches by###a joint venture of lockheed martin corp'
p74
aS'apple--apple inc###joined that effort with###a filing'
p75
aS'southern--the lawyer who has previously worked with southern copper###is heard in###the recordings'
p76
aS'pfizer--coury###laid out###scenarios that could play out in the future and had even suggested that a mylan-perrigo combination could be an attractive target for pfizer inc'
p77
aS'time warner--aol###to be lead as###time warner inc'
p78
aS"boeing--margin questions boeing 's profit margins###to fall in###2015"
p79
aS'nasdaq--the nasdaq composite index###was down 4.98 points , 0.10 percent , at###4,988.60'
p80
aS"apple--i###'m very bullish on###apple pay"
p81
aS'delta air lines--air france-klm , delta air lines and alitalia###secured eu antitrust approval on tuesday for their profit-sharing pact after###offering to help rivals enter the market for certain routes'
p82
aS'raytheon--update 3-u.s. judge###dismisses###raytheon suit'
p83
aS'lockheed martin--united launch alliance###be a joint venture of###lockheed martin corp and boeing co'
p84
aS'danaher--danaher and thermo fisher###were not available for###a comment'
p85
aS'nasdaq--nasdaq 0.35 pct###ended on###tuesday'
p86
aS'american airlines--american airlines###to begin merging###reservations platforms'
p87
aS'morgan stanley--morgan stanley###struck a deal to sell its oil-trading to###castleton commodities international llc'
p88
aS'pfizer--a mylan-perrigo combination###could be an attractive target for###pfizer inc'
p89
aS'lockheed martin--it###got for###a new long-range radar won by raytheon but challenged by rivals lockheed martin corp and northrop grumman corp , lockheed'
p90
aS"boeing--boeing 's annual investor conference###be told in###chicago"
p91
aS'morgan stanley--castleton###joins oil trade titans with###morgan stanley deal'
p92
aS'metlife--the life insurance business for which new york-based metlife is best known###did not alone result in###the sifi designation'
p93
aS'johnson & johnson--the cash injection###is another boost for###the young pharmaceutical company which struck milestone deals with giants johnson & johnson in october for the development of the ebola vaccine'
p94
aS'nasdaq--the nasdaq composite###lost 1.19 points , or 0.06 percent , to###2,104.14'
p95
aS'raytheon--u.s. judge###dismisses###raytheon suit'
p96
aS'amazon.com--a company###be owned by###amazon.com founder jeff bezos'
p97
aS'perrigo--mylan###is attempting to buy###over-the-counter drugmaker perrigo'
p98
aS'morgan stanley--the morgan stanley deal###will vault 45 oil storage leases for some 30 million barrels , as many as 200 staff from the biggest physical oil desk on wall street , into###the big leagues'
p99
aS'apple--apple###dipped###0.36 percent'
p100
aS'harris--mathew alderson###leads entertainment practice at###harris moure'
p101
aS'raytheon--( reuters ) - a federal judge###has dismissed###a lawsuit filed by raytheon co'
p102
aS"whirlpool--haier###has bought new zealand 's fisher to compete against###worldwide home appliances leader whirlpool corp and other global brands"
p103
aS'southern--benny ramos###be a rice farmer in###southern philippines'
p104
aS"whirlpool--haier###has bought japan 's sanyo electronics to compete against###worldwide home appliances leader whirlpool corp and other global brands"
p105
aS'whirlpool--haier###has bought paykel appliances to compete against###worldwide home appliances leader whirlpool corp and other global brands'
p106
aS'apple--its reseller agreement###protects###information collected by the retailer during sales of apple products'
p107
aS'progressive--whose left-wing new democratic party###ended of###the right-wing progressive conservatives'
p108
aS'anadarko petroleum--the san juan gas processing plant farmington , new mexico and pipelines###traversing utah from###anadarko petroleum corp 2015 *launches'
p109
aS'waters--international waters###be patrolling off###yemen'
p110
aS'harris--mathew alderson###leads the china media at###harris moure'
p111
aS'raytheon--raytheon###to develop###a replacement'
p112
aS'perrigo--it###will move ahead with###its plans to acquire mylan if the perrigo deal is not completed'
p113
aS'anadarko petroleum--utah and new mexico###be traversing from###anadarko petroleum corp 2015 *launches'
p114
aS'southern--southern copper###is not involved in###illegal acts'
p115
aS'apple--the likes of apple inc###to restructure their businesses to escape###huge penalties'
p116
aS'boeing--boeing###be a possible loss of###export financing'
p117
aS'southern--daniel durbin###be director of the institute of sports at###the university of southern california annenberg school'
p118
aS'metlife--metlife###said far from presenting systemic risk the u.s. economy in###response'
p119
aS'gap--we###to see###the biggest gap'
p120
aS'morgan stanley--morgan stanley###struck a deal to sell storage business to###castleton commodities international llc'
p121
aS'apple--apple###be the biggest contributor to###losses'
p122
aS'time warner--time warner inc###to unwind###the roughly $ 162 billion merger'
p123
aS'boeing--boeing###faces curbs on defense spending slowing###commercial aircraft orders'
p124
aS'u.s. dollar--the u.s. dollar###slumped against###the euro'
p125
aS'waters--a distinctly american version of the salty delicacy###gets its start each may in###the cool waters where the missouri and yellowstone rivers converge'
p126
aS'target--a mylan-perrigo combination###could be###an attractive target'
p127
aS'boeing--boeing###faces curbs on defense spending slowing commercial aircraft orders after###record years'
p128
aS"general motors--general motors co###fell in###the world 's largest automotive market"
p129
aS'conocophillips--shares of conocophillips###rose 6 cents , or less than 1 percent in###afternoon new york stock exchange trading'
p130
aS'boeing--boeing co###said in###tuesday'
p131
aS'conocophillips--occidental petroleum corp and marathon oil corp. houston-based conocophillips###had recommended###a vote'
p132
aS'goldman sachs--goldman sachs inc###has been ordered to pay $ 80 million , plus interest for###breaches associated with the sale of mortgage-linked securities'
p133
aS'nasdaq--the nasdaq composite###lost 6.25 points , or 0.3 percent , to###2,099.08'
p134
aS"time warner--jat 's biggest position###was###time warner cable inc"
p135
aS'apple--consumers using apple devices###be allows by###apple pay'
p136
aS'apple--we###very much want to get###apple pay'
p137
aS"morgan stanley--castleton commodities international###will buy oldest###morgan stanley 's physical oil business"
p138
aS'citigroup--aakash doshi###be vice president at###citigroup'
p139
aS'raytheon--raytheon###has###60 days to appeal the may 11 decision by a u.s. court of federal claims judge'
p140
aS'raytheon--a new long-range radar###be won by###raytheon'
p141
aS'target--coury###laid out###scenarios that could play out in the future and had even suggested that a mylan-perrigo combination could be an attractive target for pfizer inc'
p142
aS'verizon communications--aol shares###jumped after###verizon communications'
p143
aS'bank of america--the fhfa###has obtained nearly $ 17.9 billion in settlements from###institutions that include bank of america corp , jpmorgan chase & co and deutsche bank ag'
p144
aS'morgan stanley--morgan stanley###struck###a deal'
p145
aS'apple--verizon###declined 0.36 percent.###apple ( aapl.o ) , the biggest contributor'
p146
aS'u.s. dollar--independent euro weakness###be combined with###independent u.s. dollar strength'
p147
aS'goldman sachs--kion###has mandated###goldman sachs'
p148
aS'u.s. dollar--the u.s. dollar###slumped against###the euro and swiss franc'
p149
aS'target--an important fiscal discipline target###will be meet in###2020'
p150
aS'danaher--danaher and thermo fisher###were###not available'
p151
aS'southern--southern copper###did not respond to###requests'
p152
aS'boeing--boeing co###said on###tuesday'
p153
aS'u.s. dollar--the u.s. dollar###slumped following###the spike'
p154
aS'nasdaq--the nasdaq composite###dropped###1.95 points , or 0.04 percent'
p155
aS'boeing--boeing###faces###curbs'
p156
aS'nasdaq--1,187###fell on###the nasdaq'
p157
aS'gap--the trust gap###remains with###this administration'
p158
aS"southwest airlines--the southwest airlines pilots ' association###said###a news release"
p159
aS'apple--apple pay###to be get in###china'
p160
aS'conocophillips--shares of conocophillips###rose###6 cents , or less than 1 percent'
p161
aS'time warner--time warner inc###prepared to unwind###the roughly $ 162 billion merger'
p162
aS'metlife--metlife###said in###response'
p163
aS'perrigo--over-the-counter drugmaker perrigo###to be buy in###an unsolicited offer that is expected to turn into a hostile one'
p164
aS'occidental petroleum--occidental petroleum corp and marathon oil corp. houston-based conocophillips###had recommended###a vote'
p165
aS'coach--coach bill belichick###be head for###patriots'
p166
aS'anadarko petroleum--the acquisition of patara oil###*acquires###the san juan gas processing plant farmington , new mexico and pipelines traversing utah and new mexico from anadarko petroleum corp 2015 *launches global physical base metals trading business ( reporting by josephine mason'
p167
aS'nasdaq--the nasdaq composite###recorded###59 new highs and 60 new lows'
p168
aS'verizon communications--aol shares###jumped 18.62 percent after###verizon communications'
p169
aS'nasdaq--nasdaq 0.35 pct###ended by###noel randewich may 12'
p170
aS'time warner--time warner cable inc###be followed by###twitter inc and yahoo inc.'
p171
aS'apple--the likes of apple inc###to restructure###their businesses'
p172
aS'metlife--metlife###had in###january'
p173
aS'caterpillar--global governmental affairs###be director for###caterpillar inc'
p174
aS"apple--cook 's china visit###was to focus on###apple pay 's entry"
p175
aS'nasdaq--the nasdaq composite###dropped 16.34 points , or 0.33 percent , to###4,977.23'
p176
aS'metlife--metlife###is###a source of financial stability'
p177
aS'cisco systems--cisco systems inc###be maker for###network equipment'
p178
aS'amazon.com--jeff bezos###be founder of###amazon.com'
p179
aS'morgan stanley--morgan stanley###struck a deal to sell###its oil-trading and storage business'
p180
aS'raytheon--a lawsuit###be filed by###raytheon co'
p181
aS'raytheon--mike nachshen###be spokesman of###raytheon'
p182
aS"boeing--he###told###boeing 's annual investor conference"
p183
aS'boeing--united launch alliance###be a joint venture of###lockheed martin corp and boeing co'
p184
aS"southwest airlines--the southwest airlines pilots ' association###said in###a news release"
p185
aS'ford motor--ford motor co \'s flex###was rated in###"acceptable"'
p186
aS'metlife--metlife###was significantly interconnected through###its institutional and capital markets activities and its insurance products'
p187
aS'morgan stanley--morgan stanley###used about 100 oil tankers a month , by 2014 the number had declined to 10-15 a month to###charter'
p188
aS'nasdaq--the nasdaq composite###was recording###54 new highs and 56 new lows'
p189
aS'raytheon--raytheon###beat out###northrop and lockheed'
p190
aS'caterpillar--caterpillar inc###be one of###many companies pushing for the deal'
p191
aS'noble energy--noble energy inc###said on###monday'
p192
aS'raytheon--it###got for###a new long-range radar won by raytheon but challenged by rivals lockheed martin corp and northrop grumman corp , lockheed'
p193
aS'metlife--metlife###is a source of###financial stability'
p194
aS'jpmorgan chase--the fhfa###has obtained nearly $ 17.9 billion in settlements from###institutions that include bank of america corp , jpmorgan chase & co and deutsche bank ag'
p195
aS'raytheon--mike nachshen###be spokesman for###raytheon'
p196
aS'morgan stanley--the deal###will not be material for###morgan stanley'
p197
aS'nasdaq--nasdaq 0.35 pct###ended after###a recent run-up'
p198
aS"boeing--mcnerney###reaffirmed###boeing 's goal"
p199
aS'jpmorgan chase--jpmorgan chase###has hired###a senior banker to lead its effort'
p200
aS'morgan stanley--neither morgan stanley###released###terms of the transaction'
p201
aS"apple--cook 's china visit###to focus on###apple pay 's entry"
p202
aS'u.s. dollar--the canadian dollar###strengthen against###a broadly weaker u.s. dollar'
p203
aS'target--too-low inflation###to bring to be###their 2 percent target'
p204
aS'morgan stanley--the morgan stanley deal###will vault it into###the big leagues'
p205
aS'morgan stanley--the morgan stanley deal###will vault it###45 oil storage leases for some 30 million barrels , as many as 200 staff from the biggest physical oil desk on wall street , and an unidentified number of oil supply'
p206
aS"apple--apple 's revenues###grew in###2013"
p207
aS'cisco systems--) network equipment maker cisco systems inc###to report###a rise'
p208
aS'citigroup--richard cochinos###be head of americas group of 10 currency strategy at###citigroup'
p209
aS'apple--apple inc###joined###that effort'
p210
atRp211
.