(lp1
c__builtin__
set
p2
((lp3
S'berkshire hathaway--berkshire hathaway###rises###10 percent'
p4
atRp5
ag2
((lp6
S'expedia--expedia shares###soar###dollar'
p7
aS'expedia--expedia shares###soar dollar despite###strong u .s'
p8
aS'expedia--expedia shares###soar dollar on###strong bookings'
p9
atRp10
ag2
((lp11
S'jpmorgan chase--prosecutors###said friday###their efforts to extradite from spain a former jpmorgan chase & co executive'
p12
aS'jpmorgan chase--u .s###said friday###their efforts to extradite from spain a former jpmorgan chase & co executive'
p13
aS'jpmorgan chase--a former jpmorgan chase###be charged in###connection'
p14
atRp15
ag2
((lp16
S'cme--cme group###suspends###two gold futures traders'
p17
atRp18
ag2
((lp19
S'nucor--. steelmakers nucor corp and ssab enterprises###may asked the u .s###department of commerce'
p20
aS'nucor--. steelmakers nucor corp and ssab enterprises###may said on###friday chinese producers'
p21
atRp22
ag2
((lp23
S'at&t--at&t###seek to block###new internet rules'
p24
aS'centurylink--inc and centurylink inc###be called for###regulators'
p25
atRp26
ag2
((lp27
S'duke--duke energy profit###helped by###cold weather'
p28
atRp29
ag2
((lp30
S'jpmorgan chase--a former jpmorgan chase###be charged in###connection'
p31
atRp32
ag2
((lp33
S'time warner cable--cable company charter communications inc###reported###a bigger quarterly loss hurt by costs from a failed deal between comcast corp and time warner cable inc that involved assets'
p34
aS'comcast--cable company charter communications inc###reported###a bigger quarterly loss hurt by costs from a failed deal between comcast corp and time warner cable inc that involved assets'
p35
aS'time warner--cable company charter communications inc###reported###a bigger quarterly loss hurt by costs from a failed deal between comcast corp and time warner cable inc that involved assets'
p36
atRp37
ag2
((lp38
S'yum--it###has taken new positions in###yum'
p39
atRp40
ag2
((lp41
S'chevron--reuters ) - oil and natural gas producer chevron###reported###a 43 percent drop'
p42
atRp43
ag2
((lp44
S'devon--third point###takes stakes in yum###devon letter'
p45
atRp46
ag2
((lp47
S'cme--( reuters ) - cme group inc###(adds suspended two traders from its markets in###april 30'
p48
aS'cme--( reuters ) - cme group inc###(adds suspended two traders from its markets in###cme comment'
p49
aS'cme--cme group###suspends###two gold futures traders'
p50
aS'cme--( reuters ) - cme group inc###(adds suspended###two traders'
p51
atRp52
ag2
((lp53
S'american express--american express###told###it'
p54
atRp55
ag2
((lp56
S'chevron--brief chevron###says###renegotiated contracts to save $ 900 mln this year'
p57
atRp58
ag2
((lp59
S'facebook--a detroit prosecutor###said on###facebook'
p60
atRp61
ag2
((lp62
S'time warner cable--cable company charter communications inc###reported###a bigger quarterly loss hurt by costs from a failed deal between comcast corp ( cmcsa.o ) and time warner cable inc ( twc. n )'
p63
aS'time warner--cable company charter communications inc###reported###a bigger quarterly loss hurt by costs from a failed deal between comcast corp ( cmcsa.o ) and time warner cable inc ( twc. n )'
p64
aS'comcast--cable company charter communications inc###reported###a bigger quarterly loss hurt by costs from a failed deal between comcast corp ( cmcsa.o ) and time warner cable inc ( twc. n )'
p65
atRp66
ag2
((lp67
S'at&t--at&t , u .s###seek to block###new internet rules'
p68
atRp69
ag2
((lp70
S'general motors--trucks and suvs###be made by###general motors and ford'
p71
atRp72
ag2
((lp73
S'general motors--trucks and suvs###be made by###general motors'
p74
atRp75
ag2
((lp76
S'apple--apple###will start calls with###fixed-income investors from may 7 ahead of a potential yen-denominated bond deal'
p77
aS'apple--apple eyes yen###denominated###bond'
p78
aS'apple--apple###will start###calls'
p79
atRp80
ag2
((lp81
S'general motors--general motors co###jumped for###april'
p82
aS'general motors--general motors co###jumped to###the top of the canadian sales rankings'
p83
atRp84
ag2
((lp85
S'jpmorgan chase--letter###said friday###their efforts to extradite from spain a former jpmorgan chase & co executive'
p86
aS'jpmorgan chase--prosecutors###said friday###their efforts to extradite from spain a former jpmorgan chase & co executive'
p87
aS'jpmorgan chase--u .s###said friday###their efforts to extradite from spain a former jpmorgan chase & co executive'
p88
aS'jpmorgan chase--a former jpmorgan chase###be charged in###connection'
p89
atRp90
ag2
((lp91
S'at&t--at&t , u .s###seek to block###new internet rules'
p92
atRp93
ag2
((lp94
S'at&t--at&t###seek to block###new internet rules'
p95
atRp96
ag2
((lp97
S'wells fargo--wells fargo###be appointed kyle hranicky head of###its corporate banking group'
p98
atRp99
a.