(lp1
c__builtin__
set
p2
((lp3
S'tesoro--tesoro slams###epa###biofuel plan'
p4
aS"tesoro--tesoro slams###epa biofuel plan as###'giant step"
p5
aS'tesoro--oil refiner tesoro###has slammed###the u .s'
p6
atRp7
ag2
((lp8
S'equinix--data center company equinix inc###said on###friday'
p9
atRp10
ag2
((lp11
S'bank of america--bank of america corp###agreed###regulators to improve its compliance practices'
p12
aS'bank of america--bank of america corp###pay###a fine'
p13
aS'bank of america--bank of america corp###pay a fine for###violations'
p14
aS'bank of america--bank of america corp###agreed regulators to improve its compliance practices with###u .s'
p15
atRp16
ag2
((lp17
S'tesoro--tesoro slams###epa###biofuel plan'
p18
aS"tesoro--tesoro slams###epa biofuel plan as###'giant step"
p19
atRp20
ag2
((lp21
S'broadcom--broadcom###to be buy in###biggest'
p22
atRp23
ag2
((lp24
S'humana--health insurer humana inc###is has received###indications of takeover interest'
p25
atRp26
ag2
((lp27
S'family dollar stores--discount retailer dollar tree inc###agreed to sell###330 family dollar stores inc stores'
p28
aS'family dollar stores--330 family dollar stores inc stores###to sell to be###private equity firm sycamore partners'
p29
aS'family dollar stores--discount retailer dollar tree inc###to sell###330 family dollar stores inc stores'
p30
aS'dollar tree--discount retailer dollar tree inc###agreed to sell 330 family dollar stores inc stores to###private equity firm sycamore partners'
p31
aS'dollar tree--discount retailer dollar tree inc###to sell 330 family dollar stores inc stores to###private equity firm sycamore partners'
p32
aS'dollar tree--discount retailer dollar tree inc###to sell###330 family dollar stores inc stores'
p33
aS'dollar tree--discount retailer dollar tree inc###agreed to sell###330 family dollar stores inc stores'
p34
atRp35
ag2
((lp36
S'nike--nike inc###said in###thursday'
p37
aS'nike--nike inc###is engaged in###criminal conduct'
p38
aS'nike--nike inc###said on###thursday'
p39
atRp40
ag2
((lp41
S'merck--merck immunotherapy###appears effective in###head and neck cancer study'
p42
aS'merck--merck immunotherapy###appears###effective'
p43
atRp44
ag2
((lp45
S'altera--intel###nears###deal to buy altera for $ 16 bln sources'
p46
aS'intel--intel###nears###deal to buy altera for $ 16 bln sources'
p47
aS'altera--altera###to be buy for###$ 16 bln sources'
p48
atRp49
ag2
((lp50
S'equinix--data center company equinix inc###said on###friday'
p51
atRp52
ag2
((lp53
S'apple--apple###buys###german augmented reality software maker metaio'
p54
atRp55
ag2
((lp56
S'family dollar stores--discount retailer dollar tree inc###agreed to sell###330 family dollar stores'
p57
aS'dollar tree--discount retailer dollar tree inc###agreed to sell###330 family dollar stores'
p58
aS'dollar tree--discount retailer dollar tree inc###to sell###330 family dollar stores'
p59
aS'family dollar stores--discount retailer dollar tree inc###to sell###330 family dollar stores'
p60
aS'dollar tree--discount retailer dollar tree inc###agreed to sell 330 family dollar stores inc###fdo .n stores'
p61
aS'family dollar stores--330 family dollar stores###to be sell inc###fdo .n stores'
p62
aS'dollar tree--discount retailer dollar tree inc###to sell 330 family dollar stores inc###fdo .n stores'
p63
atRp64
ag2
((lp65
S'apple--apple###buys###german augmented reality software maker metaio'
p66
atRp67
ag2
((lp68
S'google--it###had hired###a google executive to run a new centre in silicon valley as it seeks to wave a digital wand over its heavy-manufacturing culture'
p69
atRp70
ag2
((lp71
S'nike--29 nike inc###may may be###able'
p72
aS'nike--29 nike inc###to avoid###u .s'
p73
atRp74
ag2
((lp75
S'humana--humana inc###is considering selling###itself'
p76
aS'humana--health insurer humana###explores###sale source'
p77
atRp78
ag2
((lp79
S'humana--health insurer humana###explores###sale'
p80
atRp81
ag2
((lp82
S'coca-cola--coca-cola co###urged###fifa'
p83
aS'coca-cola--coca-cola co###urged fifa to take###concrete actions to address the issues'
p84
atRp85
ag2
((lp86
S'goldman sachs--goldman sachs group inc###be appointed david wells to###a newly created role'
p87
atRp88
ag2
((lp89
S'merck--merck immunotherapy###appears effective in###head and neck cancer study'
p90
aS'merck--merck immunotherapy###appears###effective'
p91
atRp92
a.