(lp1
c__builtin__
set
p2
((lp3
S'cf industries--fertilizer producer cf industries###reported###lower first-quarter profit'
p4
atRp5
ag2
((lp6
S'motorola solutions--motorola solutions inc###reported###a better-than-expected quarterly profit helped by strong demand in north america and lower operating expenses'
p7
aS'motorola solutions--motorola solutions inc###be a maker of###walkie-talkies and radio systems'
p8
aS'motorola solutions--motorola solutions###beat###profit estimates'
p9
atRp10
ag2
((lp11
S"yum--third point 's loeb###not pushing for###yum"
p12
atRp13
ag2
((lp14
S'devon--6 devon energy###may said in###wednesday'
p15
aS'chesapeake--chesapeake###see###refracking prospects'
p16
aS'chesapeake--chesapeake###be refracking prospects in###barnett wells'
p17
aS'devon--6 devon energy###may said on###wednesday'
p18
atRp19
ag2
((lp20
S'm&t--four former top executives of wilmington trust co###be part of###m&t bank'
p21
atRp22
ag2
((lp23
S'whole foods market--whole foods market inc###announced###plans to debut a new chain of smaller , more value-focused shops next year'
p24
atRp25
ag2
((lp26
S'e*trade--e*trade###reports###$ 225 million tax benefit'
p27
aS'e*trade--6 e*trade financial corp###may will recognize an income tax benefit of about $ 225 million following###a settlement'
p28
atRp29
ag2
((lp30
S'chesapeake--devon energy corp and chesapeake energy###said in###wednesday'
p31
aS'chesapeake--chesapeake###see###refracking prospects'
p32
aS'devon--devon energy corp and chesapeake energy###said in###wednesday'
p33
aS'chesapeake--chesapeake###be refracking prospects in###barnett wells'
p34
aS'chesapeake--devon energy corp and chesapeake energy###said on###wednesday'
p35
aS'devon--devon energy corp and chesapeake energy###said on###wednesday'
p36
atRp37
ag2
((lp38
S'prudential--life insurer prudential financial inc###reported###a 64 percent jump helped by an increase in income from its u .s . retirement solutions and investment management unit'
p39
aS'prudential--prudential financial quarterly profit###rises###64 pct'
p40
atRp41
ag2
((lp42
S"international business machines--5 ( reuters ) - fourteen u .s . and canadian cancer institutes###may will use###international business machines corp 's watson computer system"
p43
atRp44
ag2
((lp45
S'reynolds american--several brands###to be buy from###reynolds american and lorillard'
p46
aS'lorillard--several brands###to be buy from###reynolds american and lorillard'
p47
aS"lorillard--britain 's imperial tobacco group which is set to buy several brands from reynolds american and lorillard to ease the united states duo 's proposed $ 25 billion merger###may be###open"
p48
aS"reynolds american--britain 's imperial tobacco group which is set to buy several brands from reynolds american and lorillard to ease the united states duo 's proposed $ 25 billion merger###may be###open"
p49
atRp50
ag2
((lp51
S"goldman sachs--goldman sachs ' dominance of such deals###has already brought in###fees"
p52
aS"goldman sachs--goldman sachs ' dominance of such deals###has already brought in###2015"
p53
atRp54
ag2
((lp55
S'bank of america--bank of america shareholders###be board despite###criticism'
p56
atRp57
ag2
((lp58
S"bank of america--shareholders###to back###bank of america corp 's ("
p59
aS"bank of america--shareholders###voted to back###bank of america corp 's ("
p60
atRp61
ag2
((lp62
S'cablevision--cablevision systems###jumped as much as 8 percent after###chief executive james dolan'
p63
atRp64
ag2
((lp65
S'twenty-first century fox--rupert murdoch-controlled twenty-first century fox inc###reported###a 1.2 percent rise helped by growth in its cable network business and the box office success of "taken 3" and "kingsman'
p66
atRp67
ag2
((lp68
S'occidental petroleum--occidental petroleum###boosts###2015 production outlook'
p69
atRp70
ag2
((lp71
S'occidental petroleum--occidental petroleum corp ( oxy .n###boosted its 2015 production forecast on###wednesday'
p72
atRp73
ag2
((lp74
S'keurig green mountain--reuters ) - keurig green mountain inc###cut###its full-year sales and profit forecasts'
p75
atRp76
ag2
((lp77
S'gap--trade gap###weighs on###dollar'
p78
atRp79
ag2
((lp80
S'cf industries--fertilizer producer cf industries###reported###lower first-quarter profit'
p81
aS'cf industries--fertilizer producer cf industries###reported lower first-quarter profit on wednesday with###the drop reflecting a one-time gain a year ago from the sale of its phosphate business'
p82
atRp83
ag2
((lp84
S'tripadvisor--travel review website operator tripadvisor inc###reported###a 29.2 percent rise'
p85
atRp86
ag2
((lp87
S'tripadvisor--travel review website operator tripadvisor inc###reported###a 29.2 percent rise'
p88
atRp89
ag2
((lp90
S'jpmorgan chase--paragraphs 5 12 ) paris may 6 ( reuters ) - u .s . bank jpmorgan chase has been placed under formal investigation in france as part of a probe into alleged tax evasion by senior managers at investment firm wendel###said in###wednesday'
p91
aS'jpmorgan chase--6 ( reuters ) - u .s . bank jpmorgan chase###has been placed into###alleged tax evasion'
p92
aS'jpmorgan chase--6 ( reuters ) - u .s . bank jpmorgan chase###has been placed under###formal investigation'
p93
aS'jpmorgan chase--paragraphs 5 12 ) paris may 6 ( reuters ) - u .s . bank jpmorgan chase has been placed under formal investigation in france as part of a probe into alleged tax evasion by senior managers at investment firm wendel###said on###wednesday'
p94
aS'jpmorgan chase--6 ( reuters ) - u .s . bank jpmorgan chase###has been placed by###senior managers'
p95
aS'jpmorgan chase--6 ( reuters ) - u .s . bank jpmorgan chase###has been placed at###investment firm wendel'
p96
aS'jpmorgan chase--6 ( reuters ) - u .s . bank jpmorgan chase###has been placed as###part of a probe'
p97
atRp98
ag2
((lp99
S'whole foods market--6 whole foods market inc###may tumbled###than 9 percent'
p100
aS'whole foods market--6 whole foods market inc###may tumbled more than 9 percent in###after-hours trading'
p101
atRp102
ag2
((lp103
S'bank of america--bank of america shareholders###be board despite###criticism'
p104
atRp105
ag2
((lp106
S"bank of america--shareholders###to back###bank of america corp 's executive compensation"
p107
aS"bank of america--shareholders###voted to back###bank of america corp 's executive compensation"
p108
aS"bank of america--bank of america corp 's executive compensation###to be back at###the annual meeting"
p109
atRp110
ag2
((lp111
S'keurig green mountain--keurig green mountain inc###be the maker of###k-cup single-serve coffee pods'
p112
aS'keurig green mountain--keurig green mountain inc###reported###a 4 percent fall'
p113
atRp114
ag2
((lp115
S'whole foods market--whole foods market inc###said###same-store sales growth'
p116
atRp117
ag2
((lp118
S'metlife--metlife inc###reported###a 64 percent jump helped by investment and derivative gains'
p119
aS'metlife--life insurer metlife profit###jumps###64 pct'
p120
atRp121
ag2
((lp122
S"yum--third point 's loeb###not pushing for###yum"
p123
atRp124
ag2
((lp125
S'prudential--life insurer prudential financial inc###reported###a 64 percent jump helped by an increase in income from its u .s . retirement solutions and investment management unit'
p126
aS'prudential--prudential financial quarterly profit###rises###64 percent'
p127
atRp128
ag2
((lp129
S"apple--apple inc 's move to line up deals with record labels###is under###u .s"
p130
atRp131
ag2
((lp132
S'western union--western union co###said on###wednesday'
p133
atRp134
ag2
((lp135
S'marathon oil--marathon oil posts###be sticks to###production outlook'
p136
atRp137
ag2
((lp138
S'marathon oil--6 marathon oil corp.###may reported###a first-quarter loss'
p139
aS'marathon oil--marathon oil posts###be sticks to###production outlook'
p140
atRp141
ag2
((lp142
S'facebook--a personal tribute###be offering in###a silicon valley memorial service and on her facebook page'
p143
aS'facebook--calif facebook inc chief operating officer sheryl###sandberg re-emerged after###the accidental death of her husband'
p144
aS"facebook--facebook 's sandberg###speaks at###husband 's memorial"
p145
aS'facebook--calif facebook inc chief operating officer sheryl###sandberg re-emerged on###tuesday'
p146
aS'facebook--a personal tribute###be offering on###a silicon valley memorial service and on her facebook page'
p147
aS'facebook--calif facebook inc chief operating officer sheryl###sandberg re-emerged in###public'
p148
atRp149
ag2
((lp150
S'facebook--a personal tribute###be offering in###a silicon valley memorial service and on her facebook page'
p151
aS'facebook--facebook inc chief operating officer sheryl###sandberg re-emerged in###public'
p152
aS'facebook--facebook inc chief operating officer sheryl###sandberg re-emerged on###tuesday'
p153
aS"facebook--facebook 's sandberg###emerges to speak at###husband 's memorial"
p154
aS'facebook--a personal tribute###be offering on###a silicon valley memorial service and on her facebook page'
p155
aS'facebook--facebook inc chief operating officer sheryl###sandberg re-emerged after###the accidental death of her husband'
p156
atRp157
ag2
((lp158
S'metlife--life insurer metlife profit###beats###estimates'
p159
aS'metlife--metlife inc###reported###a better-than-expected quarterly profit'
p160
atRp161
ag2
((lp162
S'citigroup--) and citigroup###has been delayed by###two weeks'
p163
atRp164
ag2
((lp165
S'waters--billions of barrels of oil###were beneath###its gulf of mexico waters'
p166
atRp167
ag2
((lp168
S'microsoft--microsoft and its skype phone service###came out on###tuesday'
p169
aS'microsoft--microsoft and its skype phone service###came out in###a clash of corporate titans'
p170
aS'microsoft--microsoft and its skype phone service###came out on###the losing side of an eu court battle'
p171
atRp172
a.