c__builtin__
set
p1
((lp2
S'kim--kim###once considered###the second most powerful man'
p3
aS'gm--gm###reported retail sales to###customers'
p4
aS'cbs--cbs###owns cable channels showtime in###addition'
p5
aS'mat--mat###be first introduced during###1990s'
p6
aS'ma--ma###is seen despite###the change'
p7
aS'cbs--cbs###owns cbs sports network , radio stations in###addition'
p8
aS'gm--gm###reported###retail sales'
p9
aS'ma--ma###is seen as###the driving force and the public face of the company'
p10
aS'mat--mat###) being demanded from###some overseas funds'
p11
aS'cbs--cbs###gets###income'
p12
aS'gm--gm###says###china april vehicle sales'
p13
aS'kim--kim###to rule###the country'
p14
aS'cbs--cbs###gets income from###charging affiliates'
p15
aS'kim--kim###used###fear and intimidation'
p16
atRp17
.c__builtin__
set
p1
((lp2
S'time warner--a libel case brought against the time warner inc subsidiary by a british sporting goods company###was###groundless and maybe even defamatory'
p3
aS'nvidia--nvidia###earned###33 cents'
p4
aS"microsoft--nintendo 's wii u console###lags behind###sony corp 's playstation and microsoft corp 's xbox"
p5
aS'monsanto--monsanto###to buy###syngenta'
p6
aS'target--syngenta###is###the only available target'
p7
aS'bank of america--bank of america merrill lynch , wells fargo securities and jefferies###were the lead underwriters of###the offering'
p8
aS'target--it###wanted to bring inflation to###the 4.5 percent center of the target'
p9
aS'hess--hess###be producer of###north dakota oil'
p10
aS'ball--the only soccer ball brand###be named in###children of industry'
p11
aS"goldman sachs--new york 's top state court###revived###a bond insurer 's $ 120 million lawsuit claiming goldman sachs group inc"
p12
aS'goldman sachs--goldman sachs###must face###$ 120 mln suit'
p13
aS'target--sandridge###is###target of antitrust grand jury probe-filing'
p14
aS'u.s. dollar--the u.s. dollar###recovered after###german bund yields'
p15
aS'u.s. dollar--the u.s. dollar###recovered against###the euro'
p16
aS'goldman sachs--goldman sachs###must face $ 120 mln suit over###mortgage securities -court'
p17
aS'apache--apache corp###reported###a quarterly loss'
p18
aS'u.s. dollar--a resurgent u.s. dollar###erased gains from###the past two sessions'
p19
aS'goldman sachs--the case###is aca financial guaranty corp v.###goldman sachs & co , new york state court of appeals'
p20
aS'u.s. dollar--no brazilian company###so far has sought to tap###the u.s. dollar bond market'
p21
aS'amgen--amgen###said in###a statement'
p22
aS'bank of america--brasil sa , bank of america corp , mizuho financial group inc and banco santander sa###to advise on###the deal'
p23
aS'walt disney--walt disney co###named its parks as###president of its fast-growing consumer products division'
p24
aS'apple--treasuries###also benefited from###japanese investors returning to the market after a holiday and the absence of big bond deals by apple inc and others ,'
p25
aS'morgan stanley--morgan stanley###is advising nab on###the clydesdale listing'
p26
aS'monsanto--monsanto###be company of###u.s.'
p27
aS'monsanto--u.s. company monsanto###has long been interested in###its swiss rival'
p28
aS'time warner--a lawyer###said that###a libel case brought against the time warner inc'
p29
aS'target--the lower end of its 10-11 percent industrial profit margin target###would be still reach for###the full year'
p30
aS'target--inflation target###to be hit by###end-2016'
p31
aS"morgan stanley--morgan stanley 's commodities group###has renewed a refined product storage deal with transmontaigne partners l.p. seven months early as###the wall street bank plans"
p32
aS'wells fargo--bank of america merrill lynch , wells fargo securities and jefferies###were###the lead underwriters of the offering'
p33
aS'southwest airlines--malls bill smead###was encouraged by###the frequency of southwest airlines'
p34
aS'morgan stanley--ian stannard###be head of european fx strategy at###morgan stanley'
p35
aS'target--eighteen of 18 pallets###landed on###the intended target'
p36
aS'goldman sachs--alberto ramos###be senior economist with###goldman sachs'
p37
aS'nvidia--a market dominated by qualcomm inc. nvidia###said on###tuesday'
p38
aS'monsanto--monsanto###may have following###attempts to clamp down on such moves ,'
p39
aS'target--the target###would be only hit by###the end of next year'
p40
aS'monsanto--monsanto###be company for###u.s.'
p41
aS'goldman sachs--syngenta###swiss crop chemicals maker is working with###goldman sachs'
p42
aS"apple--its biggest challenger###could be###apple inc 's recently launched apple watch"
p43
aS'nasdaq--nasdaq###up to close ) by###noel randewich may 7'
p44
aS'goldman sachs--goldman sachs###must face $ 120 million suit over###mortgage securities'
p45
aS'nasdaq--nasdaq###shut down###trading'
p46
aS'target--it###aims to anchor 2016 inflation at###the mid-point of the target'
p47
aS'boeing--boeing###be rival of###u.s.'
p48
aS'boeing--airbus###surges lags in deliveries###past boeing'
p49
aS'boeing--sales###were "long shots for###boeing'
p50
aS'target--inflation###would only hit###the target'
p51
aS"nasdaq--it###competes with###intercontinental exchange inc 's nyse unit and nasdaq omx group"
p52
aS'hess--the oil###be transported in###tank cars owned by hess corp'
p53
aS'nasdaq--the nasdaq composite###gained 6.14 points , or 0.3 percent , to###2,086.29'
p54
aS'progressive--the mayor###still told the magazine###the progressive economic vision'
p55
aS'time warner--time warner cable###is content with###this arrangement'
p56
aS'apache--apache###drills as well as will in###north american shale fields'
p57
aS'microsoft--microsoft corp###told###reuters'
p58
aS'gap--the government###to make###deeper spending cuts to lower the narrow the overall gap'
p59
aS'target--states###work toward###a common target'
p60
aS'target--inflation###to run above###the official target'
p61
aS'boeing--boeing###remained ahead on###deliveries'
p62
aS"lockheed martin--he###said citing###both countries ' investment being developed by lockheed martin corp for the u.s. military and eight partner countries"
p63
aS"oracle--hedge fund manager loeb###takes aim in###at ' oracle of omaha' buffett"
p64
aS'marathon petroleum--talks###are ongoing at###marathon petroleum corp'
p65
aS'goldman sachs--the us bank###to be rejoin from###goldman sachs'
p66
aS'pfizer--the coalition known as the medical information working group###includes###pfizer inc , sanofi , novartis ag , johnson & johnson , eli lilly and co and glaxosmithkline plc'
p67
aS"bank of america--may 7 four bank of america corp directors###received unusually small majorities of votes at###this week 's annual meeting"
p68
aS'gap--we###can close###the income gap'
p69
aS'citigroup--u.s. banks citigroup and jpmorgan chase###expect to gain###market share'
p70
aS'nasdaq--the nasdaq composite###gained###6.14 points , or 0.3 percent'
p71
aS"walt disney--walt disney co###named resorts ' executive vice president of marketing as###president of its fast-growing consumer products division"
p72
aS"amgen--a lower court judge###rejected###amgen 's request"
p73
aS'dow chemical--german chemicals company basf and u.s. petrochemicals group dow chemical###could be among###possible bidders'
p74
aS"target--elevated inflation expectations and the possibility of supply-side shocks###will continue to challenge###the achievement of india 's medium-term inflation target"
p75
aS'amazon.com--the company###founded by###former amazon.com inc employees'
p76
aS'colgate-palmolive--colgate-palmolive###be ) issue amount###500 million euro maturity date may 14,2019'
p77
aS'morgan stanley--the san francisco-based company###said###morgan stanley , deutsche bank securities and bofa merrill lynch'
p78
aS'time warner--the company which was spun off from time warner inc last june###is among###several publishers who have lost readers to the online medium as more and more people prefer mobiles and tablets over printed magazines and newspapers'
p79
aS'goldman sachs--a hedge fund manager###founded the company with###former goldman sachs metals strategist josh crumb'
p80
aS'simon property--simon property group###be shareholder of###klepierre'
p81
aS'goldman sachs--murphy###to rejoin the us bank from###goldman sachs'
p82
aS'nasdaq--the nasdaq composite###finished up 25.90 points , 0.53 percent , to###4,945.54'
p83
aS'monsanto--monsanto###foresees strong benefits from###a takeover of syngenta'
p84
aS'monsanto--monsanto###to clinch###deal -source'
p85
aS'morgan stanley--morgan stanley###will still act as###a middleman'
p86
aS'time warner--a libel case###be brought against###the time warner inc subsidiary'
p87
aS'morgan stanley--morgan stanley###is advising###nab'
p88
aS'goldman sachs--goldman sachs###must face $ 120 mln suit over###mortgage securities-court'
p89
aS'goldman sachs--goldman sachs group inc###lied about###a pool of securities'
p90
aS'ball--mitre###was###the only soccer ball brand named in " children of industry'
p91
aS'boeing--boeing###also said on###thursday'
p92
aS'target--it###would still reach###the lower end of its 10-11 percent industrial profit margin target'
p93
aS'southern--the suit###be filed for###the southern district of new york'
p94
aS'nvidia--nvidia###competes with###advanced micro devices inc and intel corp'
p95
aS'time warner--a libel case###be brought against###the time warner inc'
p96
aS'target--brazil central bank###says###aims to hit inflation target by end-2016'
p97
aS'general motors--general motors###said on###thursday'
p98
aS'hess--confirmation railcars###adds were owned by###hess'
p99
aS'waters--china###claims has of###the strategic waters'
p100
aS'apple--apple inc###should buy###yelp'
p101
aS"boeing--production###be extend at###boeing 's st . louis facility"
p102
aS'goldman sachs--swiss crop chemicals maker###is working with###goldman sachs'
p103
aS"intercontinental exchange--it###competes with###intercontinental exchange inc 's nyse unit and nasdaq omx group"
p104
aS'apache--a saudi apache helicopter###was damaged in###an emergency landing'
p105
aS'intercontinental exchange--nyse###be unit of###intercontinental exchange inc'
p106
aS"goldman sachs--new york 's top state court###revived###a bond insurer 's $ 120 million lawsuit claiming goldman sachs group inc ( gs.n ) lied about a pool of securities"
p107
aS'morgan stanley--morgan stanley capital group###extended###its lease agreements'
p108
aS'monsanto--monsanto###may have to buy syngenta in###a cash'
p109
aS'hess--hess###told###reuters'
p110
aS'waters--china###could be "testing###the waters'
p111
aS'time warner--charter###is now in###negotiations to acquire time warner cable'
p112
aS'hess--the tioga rail complex###be owned by###hess'
p113
aS"target--the target###is below###general electric 's 14.6 percent industrial margin"
p114
aS'general motors--may 7 general motors and its chinese joint ventures sold 258,484 vehicles###said on###thursday'
p115
aS'southern--the southern california city of san bernardino###has proposed virtually eliminating###retiree health insurance costs'
p116
aS'walt disney--walt disney co###named leslie ferraro , as###president of its fast-growing consumer products division'
p117
aS'target--no other community###has set###a minimum wage target higher than $ 16'
p118
aS"target--elevated inflation expectations and the possibility of supply-side shocks###to challenge###the achievement of india 's medium-term inflation target"
p119
aS'hess--crude oil###be owned by###hess corp'
p120
aS'eli lilly and--the coalition known as the medical information working group###includes###pfizer inc , sanofi , novartis ag , johnson & johnson , eli lilly and co and glaxosmithkline plc'
p121
aS"time warner--a new dimension###would be add in###the wake of comcast corp 's failed purchase of time warner cable inc."
p122
aS'u.s. dollar--a resurgent u.s. dollar###erased gains setting the market up for###its first weekly decline'
p123
aS'nasdaq--the nasdaq composite###climbed 17.87 points , or 0.36 percent , to###4,937.51'
p124
aS'general motors--may 7 general motors and its chinese joint ventures sold 258,484 vehicles###be vehicles in###china'
p125
aS'gap--it###close###a profitability gap'
p126
aS'hess--a bnsf train###was carrying###railcars owned by hess corp , 10 of which caught fire and forced the evacuation of a nearby town , the oil producer told reuters late wednesday'
p127
aS"walt disney--walt disney co###named leslie ferraro ,###its parks and resorts ' executive vice president of marketing"
p128
aS'johnson & johnson--the coalition known as the medical information working group###includes###pfizer inc , sanofi , novartis ag , johnson & johnson , eli lilly and co and glaxosmithkline plc'
p129
aS"lyondellbasell industries nv--hourly workers striking against lyondellbasell industries nv 's ( lyb.n ) houston refinery###voted on###thursday"
p130
aS"lockheed martin--both countries ' investment###being developed by###lockheed martin corp"
p131
aS'nasdaq--the nasdaq composite###gained 7.85 points , or 0.38 percent , to###2,088'
p132
aS'time warner--time warner cable###has the right in the event bright house pursues a sale of###first refusal'
p133
aS'morgan stanley--morgan stanley , deutsche bank securities and bofa merrill lynch###were among###the underwriters'
p134
aS'waters--maersk ship###has left###its territorial waters'
p135
aS'target--inflation###to bring to be###the 4.5 percent center of the target'
p136
aS'morgan stanley--the ipo###are organising with###the help of morgan stanley'
p137
aS'target--may 7 sandridge energy inc###is###the target of federal grand jury probe concerning violations of antitrust law'
p138
aS"morgan stanley--morgan stanley 's commodities group###has renewed seven months early###a refined product storage deal"
p139
aS'nvidia--nvidia###does###a lot of their business'
p140
aS'equinix--the equinix approach###was###one such situation'
p141
aS'nasdaq--the nasdaq composite .ixic###added 25.90 points , or 0.53 percent , to###4,945.54'
p142
aS'target--levy###has cut expenditures to reach###a primary surplus target equivalent'
p143
aS'nvidia--nvidia###does in###us dollars'
p144
aS'walt disney--walt disney co###named its parks###leslie ferraro'
p145
aS'bank of america--may 7 four bank of america corp directors###received of###votes'
p146
aS"gap--the governor 's recommendations###may close###the budget gap"
p147
aS"apple--apple watch 's processor###is###contract manufactured"
p148
aS'jpmorgan chase--u.s. banks citigroup and jpmorgan chase###expect to gain###market share'
p149
aS'target--inflation###to bring to be###the official target'
p150
aS'nvidia--nvidia corp###posted###a 4.4 percent rise'
p151
aS'morgan stanley--manoj pradhan###be global economist at###morgan stanley'
p152
aS'goldman sachs--josh crumb###be strategist of###goldman sachs metals'
p153
aS"nvidia--a strong dollar which has risen about 9 percent against a basket of major currencies###also contributed to###nvidia 's weak results and forecast"
p154
aS'target--inflation###be driving to###the target'
p155
aS'monsanto--monsanto and syngenta###are working with###investment banks'
p156
aS'nasdaq--the s&p 500###was up 1.2 points , 0.06 percent , at###2,081.35 and the nasdaq composite was up'
p157
aS'nvidia--nvidia quarterly revenue###rises###4.4 pct'
p158
aS'monsanto--monsanto###foresees###strong benefits'
p159
aS"nvidia--nvidia 's stock###was down 1.3 percent in###after-market trading"
p160
aS'nasdaq--the nasdaq composite###added 25.90 points , or 0.53 percent , to###4,945.54'
p161
aS'lockheed martin--the lockheed martin corp###said on###wednesday'
p162
aS'waters--waters###told late on wednesday###reuters'
p163
aS'monsanto--monsanto###continues to circle###the company'
p164
aS'nvidia--nvidia###does of###their business'
p165
aS'waters--the maersk container ship###has left###iranian territorial waters'
p166
aS"simon property--klepierre 's largest shareholder simon property group###had placed an order for a 2 percent stake as###part of the placement"
p167
aS'apache--apache###had###a loss of 37 cents'
p168
aS'bank of america--may 7 four bank of america corp directors###received###small majorities of votes'
p169
aS'oracle--aim###be took at###the " oracle of omaha , " calling beloved billionaire warren buffett a hypocrite'
p170
aS'monsanto--deal###may cost###monsanto'
p171
aS"time warner--he###wants to consolidate the new york cable###a proposal that would add a new dimension to the rampant talk of deals in the wake of comcast corp 's failed purchase of time warner cable inc."
p172
aS'southern--the southern california city of san bernardino###has proposed virtually eliminating retiree health insurance costs under###a bankruptcy exit plan it must produce by may 31'
p173
aS"goldman sachs--new york 's top state court###revived###a bond insurer 's $ 120 million lawsuit claiming goldman sachs & co"
p174
aS'intel--nvidia###also competes with###intel corp , forecast second-quarter revenue of $ 1.01 billion , plus or minus'
p175
aS'amgen--the blockbuster amgen inc drug###used to prevent###infections'
p176
aS'boeing--may 7 boeing co###to boost###international sales of its f/a-18e/f super hornet fighter jets'
p177
aS'nvidia--a market###be dominated by###qualcomm inc. nvidia'
p178
aS'nvidia--nvidia###earned 33 cents per share excluding###items'
p179
aS"southern--the firm 's annual shareholder meeting###be told in###the southern town of fuerth"
p180
aS'oracle--hedge fund mogul daniel loeb###took aim at###the " oracle of omaha , " calling beloved billionaire warren buffett a hypocrite'
p181
aS'monsanto--monsanto###meanwhile is focused on###conventional and biotech seeds'
p182
aS'southwest airlines--weddings###was encouraged by###the frequency of southwest airlines'
p183
aS'goldman sachs--the company###be founded with###former goldman sachs metals strategist josh crumb'
p184
aS'nasdaq--the nasdaq composite###was recording###46 new highs and 60 new lows'
p185
aS'u.s. dollar--the u.s. dollar###recovered on###thursday'
p186
aS"walt disney--walt disney co###named resorts ' executive vice president of marketing###leslie ferraro"
p187
aS'u.s. dollar--a resurgent u.s. dollar###erased###gains'
p188
aS'intel--nvidia###competes with###advanced micro devices inc and intel corp'
p189
aS'eaton--andrew szczurowski###be vice president at###eaton vance'
p190
aS'time warner--time warner cable###has###an agreement to negotiate programing rates for bright house'
p191
aS'monsanto--monsanto###may need###partner'
p192
aS'nvidia--nvidia###also competes with###intel corp , forecast second-quarter revenue of $ 1.01 billion , plus or minus'
p193
aS'ebay--paypal###be the payments arm of###ebay'
p194
aS'apache--apache###reported###a first-quarter loss of $ 4.7 billion'
p195
aS"nvidia--nvidia 's net income###fell for###the first quarter ended april 26"
p196
aS'nvidia--nvidia###made###a market dominated by qualcomm inc.'
p197
aS'nasdaq--the nasdaq composite###climbed###17.87 points , or 0.36 percent'
p198
aS'bank of america--may 7 four bank of america corp directors###received unusually small majorities of votes for###re-election'
p199
aS'apache--apache###had a loss of 37 cents per share excluding###one-time items'
p200
aS'amgen--the blockbuster amgen inc drug###used to prevent infections in###cancer patients'
p201
aS'apache--apache chief executive officer john christmann###said on###a conference call'
p202
aS'monsanto--monsanto###may need partner to clinch###deal -source'
p203
aS'oracle--hedge fund mogul daniel loeb###took aim to###the " oracle of omaha , " calling beloved billionaire warren buffett a hypocrite'
p204
aS'time warner--time warner cable###has###an agreement to negotiate programming rates for bright house'
p205
aS'nvidia--nvidia corp###forecast###lower-than-expected revenue'
p206
aS"general electric--the target###is below###general electric 's 14.6 percent industrial margin"
p207
aS'goldman sachs--josh crumb###be strategist for###goldman sachs metals'
p208
aS"simon property--klepierre 's largest shareholder simon property group###had placed###an order"
p209
aS'wells fargo--bank of america merrill lynch , wells fargo securities and jefferies###were the lead underwriters of###the offering'
p210
aS'southern--cross-breeding###can produce###tougher animals that are better able to withstand erratic weather , common in this arid southern part of zimbabwe'
p211
aS'boeing--may 7 boeing co###will struggle to boost###international sales of its f/a-18e/f super hornet fighter jets'
p212
aS'time warner--charter###is a smaller operator than###time warner cable'
p213
aS'jpmorgan chase--jpmorgan chase###left in###2013'
p214
aS'nasdaq--the nasdaq composite###added###25.90 points , or 0.53 percent'
p215
aS'goldman sachs--goldman sachs###must face###$ 120 million suit'
p216
aS'nasdaq--the nasdaq composite###gained###7.85 points , or 0.38 percent'
p217
aS'hess--railcars###be owned by###hess corp'
p218
aS'waters--china###claims has###90 percent of the strategic waters'
p219
aS"southern--gerhard jaeger###told the firm 's annual shareholder meeting in###the southern town of fuerth"
p220
aS"lyondellbasell industries nv--hourly workers###striking against###lyondellbasell industries nv 's ( lyb.n ) houston refinery"
p221
aS'monsanto--monsanto###may have to buy###syngenta'
p222
aS'time warner--time warner cable###is###content'
p223
aS'hess--tank cars###be owned by###hess corp'
p224
aS'target--it###to bring inflation to###the 4.5 percent center of the target'
p225
aS'target--2016 inflation###to be anchor at###the mid-point of the target'
p226
aS'target--brazilian finance minister joaquim levy###floated###the idea setting a target'
p227
aS'bank of america--bank of america merrill lynch , wells fargo securities and jefferies###were###the lead underwriters of the offering'
p228
aS'equinix--equinix###moves to gatecrash###telecity'
p229
atRp230
.