c__builtin__
set
p1
((lp2
S'ed--ed###won by###a hair'
p3
aS'ed--ed###won in###the fourth'
p4
aS'gm--gm###will continue to follow###its own plan regarding investing in product development'
p5
aS'cf--cf###is caused by###a missing or defective gene that makes the body'
p6
aS'yum--yum###should spin off###its china business'
p7
aS'gm--gm###to follow###its own plan regarding investing in product development'
p8
aS'gm--gm###announced###the $ 5 billion share buyback to appease frustrated investors'
p9
aS"yum--yum###be touts by###greenlight 's einhorn slams oil frackers"
p10
aS'ge--ge###sees###an opportunity'
p11
aS'ea--ea###to benefit from###advertising'
p12
aS'ge--ge###has until###next month to offer concessions if it cannot convince the eu enforcer'
p13
aS'yum--yum###should spin off its china business allowing###a fully independent china company'
p14
aS'ed--ed###secured###the support of trade unions'
p15
aS'ge--ge###has###a checkered history'
p16
aS'eog--eog###was###the latest major u.s. shale oil producer'
p17
aS'gm--gm###will continue to work with###partners'
p18
aS'eog--eog###considered###a leader'
p19
atRp20
.c__builtin__
set
p1
((lp2
S'morgan stanley--alleged morgan stanley###had falsely represented###the quality of the loans'
p3
aS'macerich--macerich###settles to add###two independent directors'
p4
aS'harris--harris###be shareholder for###holcim'
p5
aS'bank of america--the u.s. government and bank of america###backed###bullard'
p6
aS'boeing--a southwest airlines boeing 737 and an atlas air boeing 747 cargo plane , landed at the wrong airports in recent years due to preventable air traffic control errors , u.s. safety experts###said on###monday'
p7
aS'gap--the u.s. trade gap###widened in###march'
p8
aS"nasdaq--cognizant 's shares###were on###the nasdaq"
p9
aS"oracle--database software maker oracle corp 's ceo###announced his plan to become executive chairman in###september"
p10
aS'general electric--general electric co###announced###collaborations'
p11
aS'progressive--he###would cut costs in###a bid to turn the fast-food chain into a "modern , progressive burger company'
p12
aS'southwest airlines--southwest airlines flight 4013###took off 12 , 2014 , from###chicago midway international airport'
p13
aS"southern--the southern district of new york court###denied###the company 's motion to dismiss the case"
p14
aS'wells fargo--wells fargo###only confirmed###the departure of sievewright'
p15
aS'nasdaq--the nasdaq composite###gained###8.52 points , or 0.4 percent'
p16
aS'delta air lines--delta air lines inc###reported###a drop'
p17
aS'united continental holdings--the expansion###comes as###delta air lines inc , united continental holdings inc and american airlines group inc press'
p18
aS"morgan stanley--major fossil fuel companies###be includes by###morgan stanley 's msci index"
p19
aS'microsoft--it###also beat###the 1,211 percent increase for microsoft corp and 671 percent'
p20
aS'target--the boj###to push back###the timing of its inflation target'
p21
aS'nasdaq--the nasdaq composite###was up 14.78 points , 0.3 percent , at###5,020.17'
p22
aS"sysco--sysco 's operating expenses###rose 4 percent in###the quarter"
p23
aS'nasdaq--the nasdaq composite###gained 6.16 points , or 0.29 percent , to###2,114.45'
p24
aS'concho resources--record quarterly production , and concho resources inc###raised its 2015 production outlook by###18 to 22 percent'
p25
aS'delta air lines--the expansion###comes as###delta air lines inc , united continental holdings inc and american airlines group inc press'
p26
aS'cisco systems--cisco systems inc chief executive john chambers###will step down after###20 years'
p27
aS'nasdaq--the nasdaq composite###added###9.17 points , or 0.43 percent'
p28
aS'intel--intel###to launched them in###1993'
p29
aS'walt disney--walt disney co###be company of###dow'
p30
aS'bank of america--bank of america###plans###vote'
p31
aS'boeing--an atlas air boeing 747 cargo plane###landed due to###preventable air traffic control errors'
p32
aS'nasdaq--nasdaq chief executive robert greifeld###joined the debate about fee-based incentives in###last year'
p33
aS'conocophillips--exxonmobil and conocophillips###be majors of###u.s.'
p34
aS'morgan stanley--morgan stanley###said on###monday'
p35
aS'macerich--macerich###said in###a statement'
p36
aS'citigroup--meetings###be kicked off through###bank of america merrill lynch and citigroup'
p37
aS'progressive--it###is###time to focus the economy on electric cars and transit and "environmentally progressive businesses'
p38
aS'bank of america--bank of america corp###plans to hold###a shareholder vote the board made in october to company bylaws'
p39
aS'nasdaq--the nasdaq composite###added###11.54 points , or 0.23 percent'
p40
aS'progressive--costs###would be cut in###a bid to turn the fast-food chain into a "modern , progressive burger company'
p41
aS'sysco--sysco###said on###monday'
p42
aS'abbvie--robbins capital brookdale abbvie###be recently added to###his portfolio'
p43
aS'state street--the united nations###be invested by###blackrock and state street'
p44
aS'southern--morgan stanley###said###the southern district of new york court'
p45
aS'hp--former hp ceo fiorina###enters###2016 race'
p46
aS'eog resources--eog resources posts###be 1st-qtr loss amid###low oil prices'
p47
aS'waters--the suspected incursion###was the most serious incident in###its waters'
p48
aS"nasdaq--nasdaq###be outperformed in###the first six years of chambers ' term"
p49
aS'bank of america--meetings###be kicked off through###bank of america merrill lynch and citigroup'
p50
aS'anadarko petroleum--anadarko petroleum co###reported###a wider-than-expected quarterly loss'
p51
aS'target--gunman###was###target of terror probe'
p52
aS'apple--apple###popularized it with###the iphone'
p53
aS'nasdaq--the nasdaq composite###added###20.18 points , or 0.4 percent'
p54
aS'progressive--its plan to turn the fast-food chain into a "modern , progressive burger company###failed to impress###shareholders'
p55
aS'eog resources--einhorn###also mentioned###eog resources inc'
p56
aS'target--it###returns to###that target'
p57
aS'nasdaq--the s&p 500###gained###1.09 percent and the nasdaq 1.29 percent'
p58
aS'kellogg--cost savings from kellogg \'s ongoing " project k" and higher spending###to have helped###the company'
p59
aS'nasdaq--its three peers###be known as###the "four horsemen of the nasdaq'
p60
aS'sysco--sysco###be distributor of###food'
p61
aS'sysco--sysco###be distributor for###food'
p62
aS'hca holdings--tenet rival hca holdings inc###cited###stronger admissions'
p63
aS'harris--harris###has voted in###favor of the merger'
p64
aS"target--inflation###has been running below###the fed 's 2-percent target"
p65
aS'target--his price target###be upgraded to###clients obtained by reuters'
p66
aS'target--the company###raised###its 2015 year-end run rate revenue target'
p67
aS'nasdaq--shares of cisco###were on###nasdaq'
p68
aS'boeing--it###would fly###two-aisle boeing co 777 aircraft'
p69
aS"macerich--activist investor jonathan litt###nominated four directors to###macerich 's board"
p70
aS'intel--intel###to begin in###2003'
p71
aS"southern--gkl 's southern seoul casino and paradise###are expanding floorspace by###13 percent and 15 percent"
p72
aS'american airlines--the expansion###comes as###delta air lines inc , united continental holdings inc and american airlines group inc press'
p73
aS'nasdaq--the nasdaq composite###added 9.17 points , or 0.43 percent , to###2,117.46'
p74
aS'sysco--sysco###said in###april'
p75
aS'boeing--two-aisle boeing co 777 aircraft###would be fly to###los angeles and atlanta'
p76
aS'progressive--its plan to turn the fast-food chain into a "modern , progressive burger company###to impress###shareholders'
p77
aS'sysco--sysco###said in###monday'
p78
aS"morgan stanley--others###are invested in###funds tied to morgan stanley 's msci index ,"
p79
aS'nasdaq--nasdaq###be outperformed from###1995'
p80
aS'noble energy--oil and gas producer noble energy inc###to report###a much lower first-quarter profit hurt by weak oil prices'
p81
aS'hp--she###was derisively dubbed from###hp'
p82
aS"target--some employees###argued that###the bank 's target of 3.5 percent"
p83
aS'sysco--sysco###earned###40 cents'
p84
aS'nasdaq--the nasdaq composite###gained###23.78 points , or 0.47 percent'
p85
aS"nasdaq--it###was###nasdaq 's second biggest company"
p86
aS"aes--john zahurancik###be president of###power company aes corp 's energy storage business"
p87
aS'macerich--mall owner macerich co###to add two new independent directors as###part of a settlement'
p88
aS'morgan stanley--morgan stanley###said###the southern district of new york court'
p89
aS'anadarko petroleum--anadarko petroleum co###reported###a wider quarterly loss'
p90
aS'harris--holcim shareholder harris###has voted for###lafarge tie-up'
p91
aS'macerich--mall owner macerich co###plans to terminate###its stockholder rights plan'
p92
aS'microsoft--microsoft###started###regular payouts'
p93
aS'nasdaq--the nasdaq composite###gained 8.72 points , or 0.41 percent , to###2,117.01'
p94
aS'honeywell international--its planned $ 42 billion takeover of honeywell international###be blocked in###2001'
p95
aS'macerich--macerich###said of###john alschuler , chairman of hr&a advisors , and steven hash'
p96
aS'walt disney--dow company walt disney co###to report###higher first-quarter revenue'
p97
aS'nasdaq--the nasdaq composite###gained 8.52 points , or 0.4 percent to###2,116.81'
p98
aS'southwest airlines--southwest airlines flight 4013###took off###12 , 2014'
p99
aS'nasdaq--cisco###outperformed###nasdaq'
p100
aS'nasdaq--the nasdaq composite .ixic###added 11.54 points , or 0.23 percent , to###5,016.93'
p101
aS'apple--potential buyers###include###tech giants apple and uber , or less'
p102
aS'nasdaq--the nasdaq composite###added 20.18 points , or 0.4 percent , to###5,025.58'
p103
aS'pioneer natural resources--einhorn###cited###pioneer natural resources co'
p104
aS'nasdaq--nasdaq chief executive robert greifeld###joined###the debate'
p105
aS"sysco--sysco 's operating expenses###rose###4 percent"
p106
aS'citigroup--jb y compania sa de cv###kicked off meetings through###bank of america merrill lynch and citigroup'
p107
aS'coca-cola--coca-cola###continues to have###a " strong competitive position'
p108
aS'target--merrill lynch analyst doug leggate###upgraded###his price target'
p109
aS"walt disney--samsung and walt disney 's marvel###introduced###a marketing campaign that for the first time promotes a movie using short virtual reality films"
p110
aS"microsoft--it###was nasdaq 's second biggest company behind###microsoft"
p111
aS'target--50-year inflation swaps###do not see###inflation returning to target for the foreseeable future'
p112
aS'citigroup--jose cuervo###kicked off meetings through###bank of america merrill lynch and citigroup'
p113
aS"macerich--four directors###be nominated to###macerich 's board"
p114
aS'harris--harris###be shareholder of###holcim'
p115
aS'boeing--an atlas air boeing 747 cargo plane###landed at###the wrong airports'
p116
aS'macerich--macerich###said on###monday'
p117
aS'electronic arts--electronic arts inc###to report###fourth-quarter revenue'
p118
aS'general electric--general electric co###announced collaborations with qualcomm inc and apple inc on###monday'
p119
aS'southwest airlines--a southwest airlines boeing 737 and an atlas air boeing 747 cargo plane , landed at the wrong airports in recent years due to preventable air traffic control errors , u.s. safety experts###said on###monday'
p120
aS'walt disney--dow company walt disney co###to report higher first-quarter revenue after###strong results'
p121
aS'gap--colorado###has created###a dangerous gap'
p122
aS'pioneer natural resources--shares of pioneer natural resources co###lost###1.39 percent'
p123
aS'southern--the southern poverty law center###has paid $ 10,000 for###extra security'
p124
aS'morgan stanley--morgan stanley###sees###$ 292 million loss'
p125
aS'abbvie--larry robbins###touted###abbvie inc'
p126
aS'pioneer natural resources--shares of pioneer natural resources co###fell###1.88 percent'
p127
aS'nasdaq--the nasdaq composite###gained###6.19 points , or 0.29 percent'
p128
aS'southern--the rebel forces###are now fighting for###control of the southern port city of aden'
p129
aS'bank of america--moves-deutsche bank tech ecm head###leaves for###bank of america'
p130
aS'concho resources--record quarterly production , and concho resources inc###raised###its 2015 production outlook'
p131
aS'bank of america--the company###reported around $ 100 million outstanding under###a loan agreement on which bank of america is agent'
p132
aS'progressive--the economy###to be focus on###electric cars and transit and "environmentally progressive businesses'
p133
aS'target--his price target###be upgraded in###a recent note'
p134
aS'sysco--sysco###earned 40 cents per share excluding###items'
p135
aS'pioneer natural resources--pioneer natural resources co###told reuters in###last month'
p136
aS'concho resources--record quarterly production , and concho resources inc###raised its 2015 production outlook after###a 50 percent cut'
p137
aS'bank of america--the u.s. government and bank of america###backed bullard in###the case which was argued before the high court on april 1'
p138
aS"sysco--sysco 's operating expenses###rose 4 percent due to###higher payroll costs"
p139
aS'waters--the maersk tigris###ordered into###iranian waters'
p140
aS'gap--no need to ease policy###be saw because###a narrowing output gap'
p141
aS'cisco systems--cisco systems inc chief executive john chambers###will step down in###july'
p142
aS'morgan stanley--a trust###be backed by###a morgan stanley unit'
p143
aS'pioneer natural resources--pioneer natural resources co###told###reuters'
p144
aS"general electric--general electric 's ceo###will meet###europe 's antitrust chief"
p145
aS'macerich--mall owner macerich co###plans to add two new independent directors as###part of a settlement'
p146
aS'pioneer natural resources--its stock price###cited###pioneer natural resources co'
p147
aS'electronic arts--electronic arts inc###be the publisher of###the "fifa"'
p148
aS'nasdaq--the nasdaq composite###was recording###46 new highs and 27 new lows'
p149
aS'nasdaq--nasdaq 0.3 pct###was up on###monday afternoon'
p150
aS'allstate--home and auto insurer allstate corp###to report###better-than-expected revenue and profit'
p151
aS'macerich--mall owner macerich co###plans to add###two new independent directors'
p152
aS'macerich--macerich###said###a statement'
p153
aS'nasdaq--the nasdaq composite###was recording###55 new highs and 35 new lows'
p154
aS'nasdaq--the nasdaq composite###added 18.45 points , or 0.37 percent , to###5,023.84'
p155
aS'hp--she###was derisively dubbed the anti-steve jobs from###hp'
p156
aS'nasdaq--the nasdaq composite###gained 6.19 points , or 0.29 percent to###2,114.48'
p157
aS'microsoft--mala gaonkar lone pine microsoft microsoft###benefiting from###capital growth'
p158
aS'morgan stanley--morgan stanley###sees###$ 292 mln loss'
p159
aS'southern--william and kate###to travel in###southern england'
p160
aS'pioneer natural resources--shares of pioneer natural resources co###fell###3.1 percent'
p161
aS"apple--apple###choose###tomtom 's maps"
p162
aS"halliburton--companies like schlumberger , the world 's no.1 oil-field services provider , and halliburton###have slashed their capital expenditure for###this year citing lower oil prices"
p163
aS'kellogg--kellogg###reports###first-quarter results'
p164
aS'sysco--sysco###said###april'
p165
aS'nasdaq--the nasdaq composite###added 11.54 points , or 0.23 percent , to###5,016.93'
p166
aS'sysco--sysco corp###reported###a lower-than-expected quarterly profit hurt by higher costs and a strong dollar'
p167
aS"citigroup--1.usa.gov/1dpq641###has previously served as###ceo of citigroup 's legacy securities"
p168
aS'conocophillips--international sanctions###are lifted including###the u.s. majors exxonmobil and conocophillips'
p169
aS'nasdaq--nasdaq chief executive robert greifeld###joined the debate about fee-based incentives urging###u.s. regulators'
p170
aS'nasdaq--the nasdaq composite###gained###8.72 points , or 0.41 percent'
p171
aS'boeing--an atlas air boeing 747 cargo plane###landed in###recent years'
p172
aS'eog resources--may 4 oil and natural gas producer eog resources inc###posted###a quarterly loss'
p173
aS'goldman sachs--goldman sachs group inc###got###a disconcerting update'
p174
aS'morgan stanley--the loans###were in###a trust backed by a morgan stanley unit'
p175
aS'bank of america--jb y compania sa de cv###kicked off meetings through###bank of america merrill lynch and citigroup'
p176
aS'macerich--macerich###said of###the stockholder group'
p177
aS'ppl--ppl corp###challenged###the regulation'
p178
aS'progressive--the fast-food chain###to be turn into###a "modern , progressive burger company'
p179
aS'netflix--cablevision###has said under###pressure to stop consumers from " cutting the cord " and shifting to internet video services such as netflix and hulu'
p180
aS'macerich--macerich###settles with###investor group'
p181
aS'pioneer natural resources--pioneer natural resources co###be cited as###a particular offender'
p182
aS'goldman sachs--greg leveto###be president of###goldman sachs vice'
p183
aS'abbvie--aercap###recently added###robbins capital brookdale abbvie'
p184
aS'target--it###to miss###a launch target'
p185
aS'apple--apple###popularized###it'
p186
aS'wells fargo--tim quinlan###be an economist at###wells fargo securities'
p187
aS'gap--the gap###is narrowing between###the academic and the commercial'
p188
aS'reynolds american--she###cited###the case of a bio-medical subsidiary of tobacco company reynolds american inc.'
p189
aS'hp--she###to resign from###hp'
p190
aS'progressive--mcdonald###to be transform into###a "modern , progressive burger company'
p191
aS'nasdaq--the nasdaq composite###gained###6.16 points , or 0.29 percent'
p192
aS'morgan stanley--morgan stanley###said of###it'
p193
aS'nasdaq--the nasdaq composite###added###18.45 points , or 0.37 percent'
p194
aS"halliburton--companies like schlumberger , the world 's no.1 oil-field services provider , and halliburton###have slashed###their capital expenditure"
p195
aS'wells fargo--gary sievewright and christopher leavy###join from###wells fargo advisors'
p196
aS'bank of america--jose cuervo###kicked off meetings through###bank of america merrill lynch and citigroup'
p197
aS'blackrock--the united nations###be invested by###blackrock and state street'
p198
aS'bank of america--bank of america###is###agent'
p199
aS'target--his price target###be upgraded on###the stock'
p200
aS'citigroup--pacific rubiales###has kicked off investor meetings through###merrill lynch , citigroup and hsbc'
p201
aS"oracle--database software maker oracle corp 's ceo###announced###his plan to become executive chairman"
p202
aS'nasdaq--the nasdaq composite###gained 23.78 points , or 0.47 percent , to###5,029.17'
p203
aS'gap--he###saw no need to ease policy because###a narrowing output gap'
p204
aS'concho resources--concho resources , whiting petroleum corp and continental resources inc. last year einhorn###unveiled###a short bet'
p205
atRp206
.