(lp1
c__builtin__
set
p2
((lp3
S"pfizer--pfizer 's ibrance drug###slows###progression of breast cancer"
p4
atRp5
ag2
((lp6
S"pfizer--pfizer 's ibrance drug###slows###progression of breast cancer"
p7
atRp8
a.