(lp1
c__builtin__
set
p2
((lp3
S"chevron--erroneous reference###to remove ) sydney to be###chevron 's use of the port"
p4
atRp5
ag2
((lp6
S'facebook--his brother robert###wrote in###a facebook post'
p7
aS'facebook--his brother robert###wrote###a facebook post'
p8
atRp9
ag2
((lp10
S'facebook--his brother###wrote###(adds company statement ) by sarah mcbride san francisco may 2 ( reuters ) - dave goldberg , chief executive officer of surveymonkey and husband of facebook chief operating officer sheryl sandberg'
p11
aS'facebook--(adds company statement ) by sarah mcbride san francisco may 2 ( reuters ) - dave goldberg , chief executive officer of surveymonkey and husband of facebook chief operating officer sheryl sandberg###died unexpectedly on###friday night'
p12
aS'facebook--(adds company statement ) by sarah mcbride san francisco may 2 ( reuters ) - dave goldberg , chief executive officer of surveymonkey and husband of facebook chief operating officer sheryl sandberg###died unexpectedly in###friday night'
p13
aS'facebook--his brother###wrote in###a facebook post'
p14
atRp15
a.