(lp1
c__builtin__
set
p2
((lp3
S'bristol-myers squibb--two immunotherapies###be made by###bristol-myers squibb co'
p4
atRp5
ag2
((lp6
S'general electric--31 general electric co###may launched###the bidding process'
p7
atRp8
a.