c__builtin__
set
p1
((lp2
S'gm###has not released###prices'
p3
atRp4
.c__builtin__
set
p1
((lp2
S'chipotle mexican grill inc and shake shack inc###attract consumers with###food perceived as fresher , tastier and higher in quality'
p3
aS'freeport-mcmoran inc###controls sumitomo metal mining co ltd 21 percent###buenaventura 19.58 percent'
p4
aS'southern copper###to report###the alleged crime'
p5
aS'chipotle mexican grill inc###has leaped###87 percent'
p6
aS"a speedboat###be taken from###southern thailand 's coast"
p7
aS'southern copper###be controlled by###grupo mexico'
p8
aS'baker hughes and phillips 66###performed well rallying respectively###13.4 percent and 10 percent'
p9
aS'their boat###be towing to###malaysian waters'
p10
aS'freeport-mcmoran inc###controls 53.56 percent###sumitomo metal mining co ltd 21 percent'
p11
aS'freeport-mcmoran inc###controls sumitomo metal mining co ltd 21 percent###53.56 percent'
p12
aS'newmont mining corp and buenaventura###put their $ 4.8 billion conga project on###hold'
p13
aS'may 16 general motors co###unveiled###the sixth generation of its chevrolet camaro'
p14
aS'thousands of migrants###are adrift in###southeast asian waters'
p15
aS'newmont mining corp and buenaventura###put their $ 4.8 billion conga project amid###violent protests'
p16
aS'southern copper###announced###a 60-day formal "pause'
p17
aS'southern copper controlled by grupo mexico###to build###a desalinization plant to ease concerns over water supplies in its revised environmental plan ,'
p18
aS'southern copper###might sue###peru'
p19
aS'southern copper controlled by grupo mexico###has promised to build###a desalinization plant to ease concerns over water supplies in its revised environmental plan ,'
p20
aS'freeport-mcmoran inc###controls buenaventura 19.58 percent###sumitomo metal mining co ltd 21 percent'
p21
aS'newmont mining corp and buenaventura###put###their $ 4.8 billion conga project'
p22
aS'newmont mining corp and buenaventura###put their $ 4.8 billion conga project in###2011'
p23
aS'freeport-mcmoran inc###controls 53.56 percent###buenaventura 19.58 percent'
p24
aS'the firm###took small positions including###pioneer natural resources co'
p25
aS'the decision###follows of###unrest in the southern region of arequipa and a presidential address'
p26
aS'baker hughes and phillips 66###performed well despite###the oil rout'
p27
aS'freeport-mcmoran inc###controls buenaventura 19.58 percent###53.56 percent'
p28
aS'baker hughes and phillips 66###performed well in###the quarter'
p29
aS'southern copper###failed to report###the alleged crime'
p30
aS'small positions###be took including###pioneer natural resources co'
p31
aS'chipotle mexican grill inc###has risen###59 percent'
p32
aS'ford motor co###launched###the latest version of its rival mustang sports car'
p33
aS'southern copper###announced a 60-day formal "pause " in its stalled $ 1.4 billion tia maria project in###a bid to quell deadly protests against it'
p34
aS'they###were again stopped in###malaysian waters'
p35
atRp36
.