(lp1
c__builtin__
set
p2
((lp3
S'general motors--an email###be sent to###general motors'
p4
aS'general motors--fiat chrysler automobiles###sent an email to###general motors'
p5
atRp6
ag2
((lp7
S'coca-cola--24 coca-cola co###may has extended###its partnership'
p8
atRp9
ag2
((lp10
S'general motors--an email###be sent to###general motors'
p11
aS'general motors--fiat chrysler automobiles###sent an email to###general motors'
p12
atRp13
a.