c__builtin__
set
p1
((lp2
S'gm###generated net income of $ 2.8 billion in###2014'
p3
aS'gm###would continue to follow###its own plan regarding investing in product development'
p4
aS'gm###generated###net income of $ 2.8 billion'
p5
aS'gm###be approached about###a merger'
p6
atRp7
.c__builtin__
set
p1
((lp2
S'may 24 coca-cola co###has extended its partnership with speedway motorsports inc through###2020'
p3
aS'fiat chrysler automobiles chief executive sergio marchionne###sent an email to###general motors co chief executive officer mary barra'
p4
aS"may 24 coca-cola co###has extended its partnership with speedway motorsports inc renewing###coca-cola 's status"
p5
aS"the agreement###also renewed###the beverage maker 's title sponsorship of the coca-cola 600 nascar racing event"
p6
aS'coca-cola###extends partnership with speedway through###2020'
p7
aS'google or apple###could turn to assemble vehicles as###a contractor'
p8
aS'its target daily crude production###should be cut by###at least 5 percent'
p9
aS'the final tally###then burst into###a rendition of the national anthem'
p10
aS'may 24 amazon.com inc###has started booking revenue from###retail sales'
p11
aS'google or apple###could turn to assemble###vehicles'
p12
aS'may 24 amazon.com inc###has started booking###revenue'
p13
aS'amazon.com inc###has started booking revenue from###retail sales'
p14
aS'coca-cola###extends###partnership'
p15
aS'an email###be sent to###general motors co chief executive officer mary barra'
p16
aS'the producing group###should cut###its target daily crude production'
p17
aS'the tax deals granted by individual member states to amazon and other companies such as apple inc and starbucks corp###were###legal'
p18
aS'may 24 amazon.com inc###has started booking revenue in###individual european countries'
p19
aS'the southern borders###are open without###any monitoring'
p20
aS'the department###so far had received applications from###jpmorgan and citigroup'
p21
aS'smugglers###have also used###southern thailand'
p22
aS'amazon.com inc###has started booking revenue in###individual european countries'
p23
aS'amazon.com inc###has started booking###revenue'
p24
aS'google or apple###could turn to###an existing automaker or supplier'
p25
aS'police###have also used###southern thailand'
p26
aS'may 24 coca-cola co###has extended###its partnership'
p27
atRp28
.