(lp1
c__builtin__
set
p2
((lp3
S"abbott--rival of australia 's abbott###pushes media reform to boost###political profile"
p4
aS"abbott--rival of australia 's abbott###pushes###media reform"
p5
aS'abbott--prime minister tony abbott###to be paint than###a genuine push'
p6
aS'abbott--prime minister tony abbott###to be paint in###a bad light'
p7
atRp8
ag2
((lp9
S'sysco--sysco###sees u###.s'
p10
aS'sysco--food distributor sysco###said on###friday that a record u .s . outbreak of avian flu would limit its supply of eggs and chickens'
p11
atRp12
ag2
((lp13
S'general motors--16 general motors co###may unveiled###the sixth generation of its chevrolet camaro'
p14
atRp15
a.