(lp1
c__builtin__
set
p2
((lp3
S'pfizer--fda app###proves###pfizer drug to treat very rare lung disease'
p4
atRp5
ag2
((lp6
S"williams--fed 's williams###expects above###trend"
p7
atRp8
ag2
((lp9
S'qualcomm--pressure###could be put on###qualcomm'
p10
aS'broadcom--avago , broadcom deal###could put pressure on###qualcomm'
p11
aS'qualcomm--avago , broadcom deal###could put pressure on###qualcomm'
p12
aS'broadcom--avago , broadcom deal###could put###pressure'
p13
atRp14
ag2
((lp15
S'dollar general--dollar general###says###coo vasos to replace dreiling as ceo'
p16
atRp17
ag2
((lp18
S'nielsen--nielsen nv###announced in###wendnesday'
p19
aS'nielsen--corrects to say that nielsen###will bring digital ad ratings to chinese###market'
p20
aS'nielsen--nielsen nv###be announced in###wendnesday'
p21
aS'nielsen--corrects to say that nielsen###will bring###digital ad ratings'
p22
aS'nielsen--nielsen nv###announced on###wendnesday'
p23
atRp24
ag2
((lp25
S'goldman sachs--goldman sachs###tried to lure libor trader with###$ 3 mln bonus'
p26
aS'goldman sachs--goldman sachs###to lure libor trader with###$ 3 mln bonus'
p27
aS'goldman sachs--goldman sachs###to hire###him'
p28
aS'goldman sachs--goldman sachs###tried to hire him with###a $ 3 million signing-on bonus'
p29
aS'goldman sachs--goldman sachs###to hire him with###a $ 3 million signing-on bonus'
p30
aS'goldman sachs--goldman sachs###to lure###libor trader'
p31
aS'goldman sachs--goldman sachs###tried to hire###him'
p32
aS'goldman sachs--goldman sachs###tried to lure###libor trader'
p33
atRp34
ag2
((lp35
S'apple--apple###loses court###bid to disqualify antitrust monitor u .s'
p36
aS'apple--apple###loses bid to disqualify antitrust monitor u .s###court'
p37
atRp38
ag2
((lp39
S'costco wholesale--citigroup inc###said###the deal the bank made with costco wholesale corp ( cost .o ) to replace american express co ( axp.n ) as the issuer of credit cards for the retailer will be profitable for his shareholders'
p40
aS'citigroup--citigroup inc###said###the deal the bank made with costco wholesale corp ( cost .o ) to replace american express co ( axp.n ) as the issuer of credit cards for the retailer will be profitable for his shareholders'
p41
aS'american express--citigroup inc###said###the deal the bank made with costco wholesale corp ( cost .o ) to replace american express co ( axp.n ) as the issuer of credit cards for the retailer will be profitable for his shareholders'
p42
aS'costco wholesale--n###said###the deal the bank made with costco wholesale corp ( cost .o ) to replace american express co ( axp.n ) as the issuer of credit cards for the retailer will be profitable for his shareholders'
p43
aS'american express--n###said###the deal the bank made with costco wholesale corp ( cost .o ) to replace american express co ( axp.n ) as the issuer of credit cards for the retailer will be profitable for his shareholders'
p44
aS'costco wholesale--ceo mike corbat###said###the deal the bank made with costco wholesale corp ( cost .o ) to replace american express co ( axp.n ) as the issuer of credit cards for the retailer will be profitable for his shareholders'
p45
aS'costco wholesale--the bank###made with###costco wholesale'
p46
aS'american express--ceo mike corbat###said###the deal the bank made with costco wholesale corp ( cost .o ) to replace american express co ( axp.n ) as the issuer of credit cards for the retailer will be profitable for his shareholders'
p47
atRp48
ag2
((lp49
S'bank of america--bank of america merrill lynch analysts###said on###thursday'
p50
atRp51
ag2
((lp52
S'progressive--women of childbearing age###be mainly affects by###a rare , progressive lung disease'
p53
aS'pfizer--fda###approves###pfizer drug to treat very rare lung disease'
p54
atRp55
ag2
((lp56
S'visa--visa###moved###card processing'
p57
aS'visa--visa###moved card processing to###local system'
p58
aS'visa--visa###moved card processing in###russia'
p59
atRp60
ag2
((lp61
S'equinix--equinix###nears###deal'
p62
aS'equinix--data center company equinix inc###is nearing###a deal to acquire british peer telecity group plc'
p63
atRp64
ag2
((lp65
S'wells fargo--ex wells fargo analyst###settles u###.s'
p66
atRp67
ag2
((lp68
S'google--hbo###now app will be on###google play'
p69
atRp70
ag2
((lp71
S'wells fargo--ex wells fargo analyst###settles u###.s'
p72
atRp73
ag2
((lp74
S'bank of america--bank of america merrill lynch analysts###said on###thursday'
p75
atRp76
ag2
((lp77
S'lockheed martin--lockheed martin###to expand###a plant'
p78
aS'lockheed martin--lockheed martin###received a deal to expand###a plant'
p79
aS'lockheed martin--lockheed martin###received a deal###an unusual method funding a private project with taxpayer debt'
p80
aS'lockheed martin--lockheed martin###received a deal in###this week'
p81
aS'lockheed martin--arkansas###plans to sell###muni bonds to build lockheed martin plant'
p82
atRp83
ag2
((lp84
S'amazon--amazon###offers###limited free shipping'
p85
atRp86
ag2
((lp87
S"gap--spain 's wealth gap###widens###economy powers"
p88
atRp89
ag2
((lp90
S'general electric--28 general electric co###may has picked conglomerate###deutsche bank to sell italian lender ge capital interbanca as part of a strategic review'
p91
atRp92
ag2
((lp93
S'visa--visa###threatens as###sponsor dismay mounts'
p94
aS'visa--visa inc###has told###fifa'
p95
aS'visa--visa###threatens to###ditch fifa'
p96
atRp97
ag2
((lp98
S'general electric--sanpaolo , vodafone group and general electric ) may 28 ( reuters ) - the following bids , mergers , acquisitions and disposals###were reported by###2000 gmt'
p99
atRp100
ag2
((lp101
S'gamestop--gamestop corp###reported###a 3.2 percent rise helped by the releases of games such as "evolve " and "mortal kombat x"'
p102
aS'gamestop--gamestop revenue###rises###3.2 pct'
p103
atRp104
ag2
((lp105
S'delta air lines--france delta air lines###said on###thursday'
p106
atRp107
ag2
((lp108
S'google--google###shows off###virtual reality collaboration'
p109
atRp110
ag2
((lp111
S'google--action camera maker###introduced a virtual reality system using###16 cameras and google software'
p112
atRp113
ag2
((lp114
S'apple--apple###to disqualify antitrust monitor in###e books case'
p115
aS'apple--apple###fails to disqualify antitrust monitor in###e books case'
p116
aS'apple--apple###fails to disqualify###antitrust monitor'
p117
atRp118
ag2
((lp119
S'gap--canada current account gap###widens in###q1'
p120
atRp121
ag2
((lp122
S'costco wholesale--warehouse club operator costco wholesale corp###reported###a decline hurt by gasoline price deflation and a stronger dollar'
p123
atRp124
ag2
((lp125
S'bank of america--bank of america merrill lynch analysts###said on###thursday'
p126
atRp127
ag2
((lp128
S'bank of america--bank of america merrill lynch analysts###said on###thursday'
p129
atRp130
a.