(lp1
c__builtin__
set
p2
((lp3
S'level 3 communications--level 3 communications shares###be set for###gains barron'
p4
atRp5
ag2
((lp6
S"abbott--rpt rival of australia 's abbott###pushes###media reform"
p7
aS'abbott--prime minister tony abbott###to be paint than###a genuine push'
p8
aS'abbott--prime minister tony abbott###to be paint in###a bad light'
p9
aS"abbott--rpt rival of australia 's abbott###pushes media reform to boost###political profile"
p10
atRp11
a.