c__builtin__
set
p1
((lp2
S'ed--ed###won by###a hair'
p3
aS'hp--hp###said in###its court filing'
p4
aS'ed--ed###won in###the fourth'
p5
aS'ea--ea###earned 39 cents per share on###revenue of $ 896 million'
p6
aS'yum--yum###should spin off###its china business'
p7
aS'hp--hp###bought autonomy in###2011'
p8
aS'hp--hp###bought###autonomy'
p9
aS'ea--ea###forecast an adjusted profit of $ 2.75 per share for the year ending march 31 above###the average estimate of $ 2.64'
p10
aS'ea--ea###would not release any games in###the current quarter'
p11
aS'ea--ea###would not release###any games'
p12
aS'oxy--oxy###also boosted###its annual dividend'
p13
aS'oxy--oxy###said as###part of the announcement'
p14
aS'yum--yum###should spin off its china business allowing###a fully independent china company'
p15
aS'ed--ed###secured###the support of trade unions'
p16
aS'ea--ea###however forecast###a breakeven current quarter'
p17
aS'ea--ea###earned###39 cents'
p18
aS'ea--ea###forecast###an adjusted profit of $ 2.75'
p19
aS'ea--ea###earned 39 cents per share on###an adjusted basis'
p20
atRp21
.c__builtin__
set
p1
((lp2
S'concho resources--the father fracker , concho resources , whiting petroleum corp and continental resources inc. last year einhorn###unveiled a short bet against athenahealth inc at###a previous sohn conference'
p3
aS'electronic arts--electronic arts inc###be publisher of###video game'
p4
aS'microsoft--microsoft###is not in###talks'
p5
aS'wells fargo--wells fargo###take###the blame'
p6
aS"microsoft--spgnux###could replace###microsoft corp 's windows"
p7
aS'nasdaq--the s&p 500###gained###0.29 percent and the nasdaq 0.23 percent'
p8
aS'southern--southern fighters###be also killed###at least 12 houthi fighters'
p9
aS'microsoft--salesforce shares###be spike on###report of microsoft evaluating bid'
p10
aS'netflix--netflix representatives###met recently with###than 20 fcc officials'
p11
aS'nasdaq--the nasdaq composite###lost 25.03 points , or 1.18 percent , to###2,089.46'
p12
aS'nasdaq--declining issues###fell on###the nasdaq'
p13
aS"oracle--database software maker oracle corp 's ceo###announced his plan to become executive chairman in###september"
p14
aS'cisco systems--cisco systems inc###be maker of###network equipment'
p15
aS'nasdaq--the nasdaq composite###declined 64.48 points , or 1.29 percent , to###4,952.44'
p16
aS'progressive--it###is###time to focus the economy on electric cars and transit and "environmentally progressive businesses'
p17
aS'morgan stanley--morgan stanley###said###a note'
p18
aS'progressive--us###to stick to###our commitment to make the dividend progressive'
p19
aS'netflix--netflix###asks fcc to reject###at&t-directv merger'
p20
aS'bank of america--bank of america corp###advised pacific rubiales on###the deal'
p21
aS'morgan stanley--morgan stanley###be joined from###hsbc'
p22
aS"morgan stanley--morgan stanley 's office###be joined there from###ubs"
p23
aS'southern--the former southern baptist pastor###rallied to###an early , surprise victory'
p24
aS'kellogg--kellogg###gets about###a third of its revenue'
p25
aS'wells fargo--the city of los angeles###has sued co###wells fargo'
p26
aS'goldman sachs--goldman sachs group inc###said on###tuesday'
p27
aS'target--lufthansa###confirmed###its target'
p28
aS'allstate--allstate corp###reported###a better-than-expected quarterly profit'
p29
aS'microsoft--microsoft###said after###the snowden leaks'
p30
aS'electronic arts--electronic arts###earned###39 cents'
p31
aS'cisco systems--cisco systems inc chief executive john chambers###will step down after###20 years'
p32
aS'u.s. dollar--the lingering net-long u.s. dollar positions###leave###the greenback'
p33
aS'microsoft--may 5 in a clash of corporate titans over naming rights in a fast-changing industry , microsoft and its skype phone service###came out in###the losing side of an eu court battle'
p34
aS'gap--the gap###widened in###march'
p35
aS'ebay--the 16th annual auction to benefit glide , which provides food and services to the poor and homeless , will be held on ebay ( ebay. o ) from may 31 to june 5###said on###tuesday'
p36
aS'gap--the gap###widened in###february'
p37
aS'pioneer natural resources--pioneer natural resources###has###quarterly loss'
p38
aS"allstate--allstate 's shares###closed on###tuesday"
p39
aS'citigroup--meetings###be kicked off through###bank of america merrill lynch and citigroup'
p40
aS'morgan stanley--most of the advisers###joined###morgan stanley'
p41
aS'nasdaq--the nasdaq composite###to end the session at###4,939.33'
p42
aS'occidental petroleum--occidental petroleum corp###said on###tuesday'
p43
aS"morgan stanley--phil hanna , jr. , and brent stern###joined there###morgan stanley 's office"
p44
aS'southern--his base###to be expand beyond###social conservative voters who the former southern baptist pastor rallied to an early , surprise victory in the 2008 white house race'
p45
aS'walt disney--the walt disney co-owned studio###said on###tuesday'
p46
aS'hp--hp###bought###autonomy'
p47
aS'microsoft--microsoft###is evaluating###a bid'
p48
aS'cisco systems--the veteran salesman###be chosen by###cisco systems inc'
p49
aS'nasdaq--shares of cisco###were on###nasdaq'
p50
aS'bank of america--bank of america###terminated###another merrill lynch broker'
p51
aS'hp--he###masterminded###a complex fraud that led it to overpay by more than $ 5 billion when hp bought autonomy in 2011'
p52
aS'bank of america--meetings###be kicked off through###bank of america merrill lynch and citigroup'
p53
aS'cisco systems--network equipment maker cisco systems inc###to launch###a converged cable access platform'
p54
aS'progressive--the barrel###is an embarrassment for###such a progressive state'
p55
aS'perrigo--perrigo###rejected###a sweetened $ 34 billion offer'
p56
aS'electronic arts--electronic arts###earned 39 cents per share on###an adjusted basis'
p57
aS'nasdaq--the nasdaq composite###declined###64.48 points , or 1.29 percent'
p58
aS"morgan stanley--greg fullmer , daniel hawkins and douglas dyakon###joined###morgan stanley 's private wealth management division"
p59
aS'microsoft--microsoft###said of###it'
p60
aS'gap--its biggest monthly trade gap###be posted while###a private gauge'
p61
aS'perrigo--it###to take its offer directly to###perrigo shareholders'
p62
aS'eog resources--einhorn###also mentioned###eog resources inc'
p63
aS'electronic arts--video game publisher electronic arts inc###be known for###titles'
p64
aS'southern--southern fighters###be also killed at least 12 houthi fighters in heavy clashes on monday night in###al-arish'
p65
aS'kellogg--kellogg chief executive john bryant###said in###an interview'
p66
aS'wells fargo--wells fargo###reaps###the profit'
p67
aS'allstate--allstate corp###reported###a 10.4 percent rise helped by a fall in catastrophe losses'
p68
aS'general motors--holden###be unit of###general motors co'
p69
aS'kellogg--kellogg shares###were down 1.5 percent in###late tuesday afternoon trading'
p70
aS"progressive--your dividend###wo be###n't be progressive"
p71
aS'allstate--allstate profit###rises###10.4 pct'
p72
aS'target--they###are above###target'
p73
aS'target--by women by###has set###a target'
p74
aS'nasdaq--the nasdaq composite###dropped 77.60 points , or 1.55 percent , to end###the session'
p75
aS'microsoft--may 5 in a clash of corporate titans over naming rights in a fast-changing industry , microsoft and its skype phone service###came out on###the losing side of an eu court battle'
p76
aS'jpmorgan chase--may 5 jpmorgan chase###said on###tuesday'
p77
aS'morgan stanley--jimena hails###joined###morgan stanley'
p78
aS'jpmorgan chase--jpmorgan chase###said on###tuesday'
p79
aS'southern--afdi###be includes by###the southern poverty law center'
p80
aS'u.s. dollar--may seasonality###calls for###u.s. dollar gains'
p81
aS'pioneer natural resources--pioneer natural resources co###be cited as###a particular offender'
p82
aS'nasdaq--the chicago###closed on###the nasdaq'
p83
aS'hp--hp###bought autonomy in###2011'
p84
aS'concho resources--the father fracker , concho resources , whiting petroleum corp and continental resources inc. last year einhorn###unveiled###a short bet'
p85
aS'invesco--its venture###has entered with###invesco'
p86
aS'devon energy--devon energy corp###reported###a net loss'
p87
aS'morgan stanley--morgan stanley###be joined from###ubs.'
p88
aS'kellogg--kellogg###cut a bit into###the bone'
p89
aS'perrigo--perrigo deal###can be close reports profit by###year end'
p90
aS'perrigo--perrigo acquisition###would create $ 800 million in synergies by###year 4'
p91
aS'perrigo--it###was moving ahead with###plans to acquire mylan contingent on the perrigo deal not being completed)[attrib=teva.ta '
p92
aS'microsoft--the skype service###be owns by###u.s. tech giant microsoft'
p93
aS'u.s. dollar--a stronger u.s. dollar###also weighed on###the dollar-denominated commodity'
p94
aS'hp--hp \'s claim###was a simple rehash of###previous leaks and insinuations that add up to one long disagreement over accounting treatment "'
p95
aS'electronic arts--electronic arts###be publisher for###video game'
p96
aS'nasdaq--the nasdaq composite###declined 71.63 points , or 1.43 percent , to###4,945.30'
p97
aS'netflix--a netflix spokeswoman###said on###tuesday'
p98
aS'devon energy--devon energy corp###raised###its forecast'
p99
aS'western union--western union###could not be immediately reached for###comment'
p100
aS'gap--the trade gap###jumped###43.1 percent'
p101
aS'pioneer natural resources--pioneer natural resources co###reported###a quarterly net loss'
p102
aS'ebay--glide###will be held on###ebay'
p103
aS'nasdaq--the nasdaq composite###lost 25.01 points , or 1.18 percent , to###2,089.48'
p104
aS'walt disney--a fight###has been brewing between###walt disney co and movie-theater operators'
p105
aS'pioneer natural resources--einhorn###cited###pioneer natural resources co'
p106
aS'netflix--the growing online video and over-the-top video markets###became###a critical issue fueled by heated opposition from netflix , dish network corp , some media companies and public interest groups'
p107
aS'gap--u.s. trade gap###raises###concerns'
p108
aS'chipotle mexican grill--the new crop of publicly traded eateries###will replicate###the success of chipotle mexican grill inc'
p109
aS'citigroup--jb y compania sa de cv###kicked off meetings through###bank of america merrill lynch and citigroup'
p110
aS'invesco--monday properties###has entered its venture with###invesco'
p111
aS'nasdaq--the nasdaq composite .ixic###to end the session at###4,939.33'
p112
aS'nasdaq--mylan shares###slipped from###a nasdaq close'
p113
aS'electronic arts--electronic arts###be publisher of###video game'
p114
aS'allstate--allstate profit###rises 10.4 pct as###catastrophe losses'
p115
aS'nasdaq--the nasdaq composite###dropped 77.60 points , or 1.55 percent , to end the session at###4,939.33'
p116
aS'citigroup--jose cuervo###kicked off meetings through###bank of america merrill lynch and citigroup'
p117
aS'kellogg--kellogg chief executive john bryant###said###an interview'
p118
aS"allstate--allstate 's shares###closed in###the new york stock exchange"
p119
aS'nasdaq--the nasdaq composite###decreased###20.44 points , or 0.97 percent'
p120
aS'hp--contracts###be disputed by###hp'
p121
aS'target--the europeans###were being strict on###the target'
p122
aS'gap--the shrinking gap between u.s. and cheaper canadian crude prices###has eroded###arbitrage opportunities'
p123
aS'nasdaq--the nasdaq composite###dropped###77.60 points , or 1.55 percent'
p124
aS'kellogg--kellogg###earned 98 cents per share excluding###items'
p125
aS'monsanto--monsanto co###be made roughly $ 5 billion in revenue in###last year'
p126
aS'bank of america--may 5 bank of america merrill lynch###fired two experienced financial advisers in###colorado'
p127
aS'apple--self-driving cars and the technology to develop them have also attracted interest from silicon valley companies such as google and apple###pitting them against###traditional carmakers'
p128
aS'bank of america--bank of america corp###advised###pacific rubiales'
p129
aS'bank of america--may 5 bank of america merrill lynch###fired two experienced financial advisers###a lawyer representing the advisers'
p130
aS"kellogg--kellogg###fell 1.48 percent after###the world 's largest maker of breakfast cereals ' net sales"
p131
aS'abbvie--larry robbins###touted###abbvie inc'
p132
aS'nasdaq--the nasdaq composite###decreased 20.44 points , or 0.97 percent , to###2,094.05'
p133
aS'wells fargo--wells fargo###has generated###a virtual fee-generating machine through which its customers are harmed'
p134
aS'perrigo--it###was steadfast in###its commitment to acquire ireland-based perrigo co.'
p135
aS'general motors--the local holden unit of general motors co###took###8.7 percent'
p136
aS'hormel foods--hormel foods corp unit###said on###tuesday'
p137
aS'nvidia--nvidia corp###was open to###a sale of the technology'
p138
aS'perrigo--it###can close###perrigo deal'
p139
aS'goldman sachs--sungard###was acquired by###silver lake partners lp , tpg capital lp , bain capital llc , blackstone group lp , goldman sachs capital partners lp , kkr & co lp and providence equity partners inc.'
p140
aS'microsoft--microsoft###is evaluating a bid after###salesforce'
p141
aS'perrigo--its offer###to take directly to be###perrigo shareholders'
p142
aS'progressive--the economy###to be focus on###electric cars and transit and "environmentally progressive businesses'
p143
aS'nasdaq--the nasdaq composite###was down 16.99 points , 0.8 percent , to###2,097.5'
p144
aS"morgan stanley--morgan stanley 's private wealth management division###be joined in###los angeles"
p145
aS"hp--contracts disputed by hp###were reviewed by###autonomy 's auditor deloitte"
p146
aS'morgan stanley--may 5 morgan stanley###said on###tuesday'
p147
aS"allstate--allstate 's shares###closed on###the new york stock exchange"
p148
aS"electronic arts--video game publisher electronic arts ' revenue###rises###5.5 pct"
p149
aS'cisco systems--cisco systems inc chief executive john chambers###will step down in###july'
p150
aS'microsoft--antitrust regulators###opened into###microsoft'
p151
aS'goldman sachs--goldman sachs and partners###paid about $ 1.15 billion for###the building'
p152
aS'perrigo--perrigo deal###can be close by###year end'
p153
aS'electronic arts--video game publisher electronic arts inc###helped by###strong digital sales and the release of " battlefield hardline'
p154
aS"kellogg--cereal###be includes by###kellogg 's u.s. morning foods business"
p155
aS'nasdaq--the nasdaq composite###lost###25.01 points , or 1.18 percent'
p156
aS'southern--the southern poverty law center###told reuters on###monday'
p157
aS'kellogg--kellogg###cut###a bit'
p158
aS'kellogg--kellogg###fell###1.48 percent'
p159
aS'devon energy--devon energy###has###quarterly loss'
p160
aS'electronic arts--electronic arts inc###be publisher for###video game'
p161
aS'wells fargo--wells fargo###has blamed###the problems'
p162
aS'nvidia--nvidia###to wind down###icera modem operations'
p163
aS'occidental petroleum--occidental petroleum###unveils###ceo succession plan'
p164
aS'nasdaq--the chicago###closed in###the nasdaq'
p165
aS'netflix--netflix inc###has urged###the u.s. federal communications commission'
p166
aS"gap--march 's trade gap###was far larger than###the $ 45.2 billion deficit the government assumed in its snapshot of first-quarter gross domestic product last week"
p167
aS'wells fargo--wells fargo###has blamed the problems on###a few "rogue'
p168
aS'gap--the united states###posted###its biggest monthly trade gap'
p169
aS'monsanto--monsanto and other agrichemical companies###are developing###biopesticides which are based on natural organisms like plant and soil microbes rather than synthetic chemicals'
p170
aS'occidental petroleum--occidental petroleum corp###said in###tuesday'
p171
aS'nasdaq--the nasdaq composite .ixic###finished down 77.60 points , 1.55 percent , to###4,939.33'
p172
aS'gap--its biggest monthly trade gap###be posted in###march'
p173
aS'kellogg--kellogg###earned###98 cents'
p174
aS'wells fargo--los angeles###sues###wells fargo'
p175
aS'at&t--netflix inc###has urged the u.s. federal communications commission to reject###the pending $ 48 billion merger of at&t inc'
p176
aS'u.s. dollar--the lingering net-long u.s. dollar positions###leave the greenback in###a vulnerable place'
p177
aS'hp--hp###said in###its court filing'
p178
aS'bank of america--bank of america###did not respond to###messages'
p179
aS'nasdaq--the nasdaq composite###finished down 77.60 points , 1.55 percent , to###4,939.33'
p180
aS'netflix--netflix representatives###raised###concerns'
p181
aS'monsanto--monsanto co###be made roughly $ 5 billion in revenue from###glyphosate'
p182
aS'cisco systems--cisco systems inc###be maker for###network equipment'
p183
aS"hp--hp 's claim###was###a simple rehash of previous leaks"
p184
aS'nasdaq--the nasdaq composite###recorded###39 new highs and 68 new lows'
p185
aS'bank of america--jb y compania sa de cv###kicked off meetings through###bank of america merrill lynch and citigroup'
p186
aS'morgan stanley--morgan stanley###said in###a note'
p187
aS'netflix--netflix###asks###fcc'
p188
aS"walt disney--walt disney 's media networks business###reported###a 13 percent rise helped by higher ad sales and affiliate fees"
p189
aS'kellogg--kellogg###gets from###outside north america'
p190
aS'nasdaq--676###fell on###the nasdaq'
p191
aS'southern--the southern poverty law center###told###reuters'
p192
aS'gap--u.s. trade gap###raises###q1 growth concerns'
p193
aS'monsanto--monsanto co###be the maker of###roundup'
p194
aS"boeing--the eurofighter consortium , from which france 's decision to break away in 1985 led to the independent rafale project , and boeing 's f/a-18 e/f and f-15 jets###face their factories going dark before###the end of the decade"
p195
aS'microsoft--microsoft###is among###some firms that have preemptively shifted some operations to vietnam from thailand and china ,'
p196
aS'perrigo--it###was moving ahead with###plans to acquire mylan contingent on the perrigo deal not being completed'
p197
aS'morgan stanley--wealth management###be division of###morgan stanley'
p198
aS'western union--western union###has###a market value of about $ 11 billion'
p199
aS'morgan stanley--morgan stanley###be joined in###miami'
p200
aS'kellogg--the deal###has been a hot topic on###the conference calls of kellogg co'
p201
aS'perrigo--perrigo acquisition###would create $ 800 million in synergies after###closing'
p202
aS'nasdaq--the nasdaq composite###dropped 77.60 points , or 1.55 percent , to###4,939.33'
p203
aS'netflix--netflix inc###has urged the u.s. federal communications commission to reject###the pending $ 48 billion merger of at&t inc'
p204
aS'bank of america--jose cuervo###kicked off meetings through###bank of america merrill lynch and citigroup'
p205
aS'kellogg--kellogg###announced###a four-year plan that entails a 7 percent workforce reduction and annual cash savings of between $ 425 million and $ 475 million as of 2018'
p206
aS'bank of america--may 5 bank of america merrill lynch###fired###two experienced financial advisers'
p207
aS'citigroup--pacific rubiales###has kicked off investor meetings through###merrill lynch , citigroup and hsbc'
p208
aS"oracle--database software maker oracle corp 's ceo###announced###his plan to become executive chairman"
p209
aS'nasdaq--the nasdaq composite###declined###71.63 points , or 1.43 percent'
p210
atRp211
.