c__builtin__
set
p1
((lp2
S'key--key###rating drivers for###2015-2017 fitch'
p3
aS"hp--hp###forecast full-year earnings below###analysts ' estimates"
p4
aS'ge--ge###told a weekly news conference in###beijing'
p5
aS'cme--cme###launched###first a physical aluminum premium contract <0#aup:>'
p6
aS'hp--hp###sells###$ 2.3 billion china unit stake'
p7
aS'hp--hp###gets nearly two-thirds of its revenue###forecast full-year earnings'
p8
aS'adm--adm###is in###the process refocusing on grain trading'
p9
aS'cme--cme###throws down###challenge'
p10
aS'adm--adm###posted###a record quarterly profit'
p11
aS'key--key###rating###drivers'
p12
aS'hp--hp###forecasts###split-related costs'
p13
aS'ge--ge###told###a weekly news conference'
p14
aS'adm--adm###sees###bright future'
p15
aS'adm--adm###is has increased research in###low-calorie sweeteners'
p16
aS'hp--hp###sells###$ 2.3 bln china unit stake'
p17
aS'hp--hp###said in###its statement'
p18
atRp19
.c__builtin__
set
p1
((lp2
S'nasdaq--the nasdaq composite###recorded###71 new highs and 36 new lows'
p3
aS'target--target###the breach may have during###the holiday shopping season compromised at least 40 million credit cards'
p4
aS'amgen--amgen and astrazeneca###partnered to develop###brodalumab and four other drugs'
p5
aS'hasbro--hasbro###owns it in###other countries where the collins word list is mostly used'
p6
aS'nasdaq--the nasdaq###recorded###61 new highs and 27 new lows'
p7
aS'waters--state waters###be overseen by###the louisiana department of natural resources'
p8
aS'hp--hp###said in###its statement'
p9
aS'waters--the platform###is in###state waters overseen by the louisiana department of natural resources'
p10
aS'citigroup--bnp paribas , bank of america merrill lynch , citigroup , deutsche bank , morgan stanley and santander gbm###to schedule###a series of fixed-income investor meetings'
p11
aS"amgen--amgen and astrazeneca###partnered to develop brodalumab from###amgen 's inflammation portfolio"
p12
aS'deere--deere###raised its full-year outlook after###cost cuts'
p13
aS'costco wholesale--warehouse club operator costco wholesale corp###to report###third-quarter sales'
p14
aS'expedia--expedia###hit###record highs'
p15
aS'target--the 4.5 percent target###to be meet by###2016'
p16
aS'microsoft--microsoft###held###significant " talks'
p17
aS'nasdaq--the nasdaq composite###added 3.40 points , or 0.07 percent , to###5,094.19'
p18
aS'target--( reuters ) - taiwan###cut###its 2015 full-year economic growth target'
p19
aS'entergy--entergy###said on###may 11'
p20
aS'nasdaq--the nasdaq composite###added###3.40 points , or 0.07 percent'
p21
aS"amgen--brodalumab and four other drugs###to be develop from###amgen 's inflammation portfolio"
p22
aS"amgen--amgen 's shares###closed in###the nasdaq"
p23
aS'amgen--amgen and astrazeneca###partnered in###april 2012'
p24
aS'wal-mart stores--wal-mart stores inc###is pressing###meat , seafood , dairy and egg suppliers'
p25
aS'costco wholesale--costco wholesale corp###be retailer of###bulk'
p26
aS'ball--the ball###hence is clearly in###the court of the greek government'
p27
aS'costco wholesale--bulk retailer costco wholesale corp###be rival of###wal-mart'
p28
aS'time warner--u.s. federal communications commission chairman tom wheeler###reached out to###the chief executives of time warner cable'
p29
aS"amgen--novartis ag 's copy of amgen 's blockbuster neupogen###won###regulatory approval"
p30
aS'target--inflation###is below###target'
p31
aS'nasdaq--the nasdaq composite###added###8.34 points , or 0.16 percent'
p32
aS'boeing--boeing ( ba.n ) shares###fell###1.72 percent)[enabler=after the wall street journal reported that bombardier ( bbdb.to '
p33
aS'michael kors holdings--fashion and accessories company michael kors holdings ltd###to report###lower-than-expected fourth-quarter profit and sales'
p34
aS'gap--the price gap###hit###as much as $ 7.40 contango'
p35
aS'expedia--expedia###sells others for $ 671 million###elong stake'
p36
aS'valero energy--refiners valero energy corp and phillips 66###want to use###railways'
p37
aS"target--brazil 's central bank chief###renewed###his commitment to slash inflation to the center of a government target by the end of 2016"
p38
aS'target--his 2 percent inflation target###be hit around###the first half of next fiscal year which begins in april 2016'
p39
aS'costco wholesale--warehouse club operator costco wholesale corp###is###likely'
p40
aS'citigroup--u.s. bank citigroup inc###failed in###a bid to win an order from a london court'
p41
aS'microsoft--microsoft shares###fell###1 percent'
p42
aS"target--inflation###to be accelerate toward###the bank 's target"
p43
aS'goldman sachs--major###bears like###goldman sachs'
p44
aS"target--financial institutions###have resoundingly rejected###target and mastercard 's attempt"
p45
aS"nasdaq--amgen 's shares###closed in###the nasdaq"
p46
aS'ebay--e-commerce players amazon and ebay inc british prime minister david cameron###said of###reforms that would lead to a better deal for britain in the european union'
p47
aS'boeing--boeing shares###fell###1.72 percent'
p48
aS'expedia--expedia###sells others for $ 671 million to###ctrip'
p49
aS'goldman sachs--goldman sachs###is looking to bundle###debt backing'
p50
aS'nasdaq--the nasdaq###added###0.8 percent'
p51
aS'target--molly snyder###be spokeswoman for###target'
p52
aS'waters--the surrounding waters###are shared by###nearly two dozen offshore oil platforms'
p53
aS'bank of new york mellon--neil mellor###be a strategist with###bank of new york mellon'
p54
aS'nasdaq--the nasdaq composite###was up 3.84 points , 0.08 percent , at###5,094.63'
p55
aS'target--the growth target which the government had raised in february###was reduced from###3.78 percent'
p56
aS'entergy--entergy###said in###may 11'
p57
aS'southern--air strikes###hit###a southern air base controlled by the rebels'
p58
aS'target--it###slashed###the full-year inflation target'
p59
aS'boeing--boeing shares###fell###1.4 percent'
p60
aS'wal-mart stores--wal-mart stores inc###to reduce###the use of antibiotics'
p61
aS'nasdaq--declining issues###fell on###the nasdaq'
p62
aS'nasdaq--the nasdaq composite###added###7.83 points , or 0.15 percent'
p63
aS"amgen--amgen and astrazeneca###partnered to develop four other drugs from###amgen 's inflammation portfolio"
p64
aS'microsoft--microsoft###is currently not weighing###an offer'
p65
aS'time warner--altice###has also approached the uss second-biggest cable provider###time warner cable'
p66
aS'nasdaq--the nasdaq composite###recorded###75 new highs and 48 new lows'
p67
aS'u.s. dollar--bullish bets###may be scaled back on###the u.s. dollar'
p68
aS'nasdaq--the nasdaq composite###was recording###65 new highs and 27 new lows'
p69
aS"waters--greenpeace###used a blog post about the spill to link to###a form letter asking him to rescind royal dutch shell plc 's drilling lease in arctic waters"
p70
aS'target--his 2 percent target###be hit around###the first half of next fiscal year which begins in april 2016'
p71
aS'hp--nearly two-thirds of its revenue###be gets by###hp'
p72
aS'harris--harris###recently announced###her campaign'
p73
aS'target--us###to meet###the 4.5 percent target'
p74
aS'target--its commitment###to achieve###the price target'
p75
aS'nasdaq--the nasdaq composite###lost 0.24 points , or 0.01 percent , to###2,130.58'
p76
aS'citigroup--u.s. bank citigroup inc###failed on###friday'
p77
aS'hp--hp###sells###$ 2.3 billion china unit stake'
p78
aS'microsoft--microsoft chief executive satya nadella###to pull###the trigger'
p79
aS'waters--high waters###delayed the opening into###next week'
p80
aS'hp--hp###gets nearly two-thirds of its revenue###forecast full-year earnings'
p81
aS'deere--two-thirds of revenue###be gets by###deere'
p82
aS'hewlett packard enterprise--tim stonesifer###will become the cfo of###hewlett packard enterprise'
p83
aS'darden restaurants--stakes in darden restaurants inc and software and e-commerce company ebix inc###be holds by###barington'
p84
aS'phillips 66--refiners valero energy corp and phillips 66###want to use###railways'
p85
aS'wells fargo--wells fargo###agreed in###2012'
p86
aS'microsoft--microsoft chief executive satya nadella###apart from the high asking price was somewhat###reluctant'
p87
aS'bank of america--bank of america###has paid out###much'
p88
aS'deere--deere###reported###a higher-than-expected quarterly profit'
p89
aS'nasdaq--the nasdaq composite###dropped 1.43 points , or 0.03 percent , to###5,089.36'
p90
aS'microsoft--microsoft and salesforce###to comment on###the report'
p91
aS'bank of america--midland###to impose on###a roughly $ 5,000 debt it had bought , and which she had incurred on a credit card account opened years earlier at bank of america'
p92
aS'altria--it###considered###a long-running racketeering case brought by the u.s. government against various companies including altria group inc , lorillard inc and reynolds american inc.'
p93
aS'target--the freeze###"demonstrates###the political courage and the determination " to hit the government \'s target'
p94
aS'expedia--expedia###hit record highs in###ctrip'
p95
aS'waters--eight ships###were waiting in###open waters'
p96
aS'nasdaq--the nasdaq composite###lost###1.43 points , or 0.03 percent'
p97
aS'southern--air strikes###also struck their positions outside###the southern city of aden'
p98
aS'nasdaq--the nasdaq###added 0.8 percent for###the week'
p99
aS'waters--oil###be spilled from###a pipeline rupture that closed two california state beaches and fouled offshore waters near santa barbara'
p100
aS'target--the japanese market###may become###a target to sell , too'
p101
aS'target--the full-year inflation target###be slashed from###an earlier 0.26 percent'
p102
aS'boeing--boeing###falls after###bombardier jet report'
p103
aS'expedia--expedia###sells elong stake to###ctrip'
p104
aS'target--the growth target which the government had raised in february###was reduced to###3.28 percent'
p105
aS'target--the full-year inflation target###be slashed to###0.13 percent'
p106
aS'wells fargo--wells fargo###agreed to###a $ 175 million settlement'
p107
aS'u.s. dollar--it###blamed the decline on###a stronger u.s. dollar'
p108
aS'nasdaq--the nasdaq composite###added 8.34 points , or 0.16 percent , to###5,099.14'
p109
aS'hewlett packard enterprise--tim stonesifer###will become###the cfo of hewlett packard enterprise'
p110
aS'target--target spokeswoman molly snyder###said###the company'
p111
aS'target--inflation###hit###his 2 percent inflation target'
p112
aS'u.s. dollar--the decline###be blamed on###a stronger u.s. dollar'
p113
aS'monsanto--monsanto###is known for###roundup'
p114
aS'waters--whose ruptured pipe###fouled###beaches and offshore waters'
p115
aS'goldman sachs--goldman sachs###to bundle###debt backing'
p116
aS'deere--deere###gets nearly two-thirds of revenue from###these products'
p117
aS'nasdaq--the nasdaq composite###dropped###1.43 points , or 0.03 percent'
p118
aS'expedia--expedia###then raised its stake in elong to###62.4 percent'
p119
aS'deere--deere shares###were up 3.7 percent in###morning trading'
p120
aS'goldman sachs--goldman sachs###is building###a new 111,500 square metre european headquarters'
p121
aS'monsanto--monsanto###introduced roundup in###1974'
p122
aS'nasdaq--1,121###fell on###the nasdaq'
p123
aS'goldman sachs--mario alberto huertas###has appointed###goldman sachs'
p124
aS'microsoft--shares of microsoft###lost###1.10 percent'
p125
aS'target--the fed###uses another measure for###its 2 percent target'
p126
aS'hp--hp shares###rose###3.6 percent'
p127
aS'bank of america--midland###sought to impose on###a roughly $ 5,000 debt it had bought , and which she had incurred on a credit card account opened years earlier at bank of america'
p128
aS'monsanto--monsanto###introduced###roundup'
p129
aS'entergy--entergy###said that###the 1,031-megawatt unit reactor located along the hudson river about 45 miles ( 72 km ) north of manhattan , could return to service in a few weeks after shutting on may 9 due to a transformer fire'
p130
aS'costco wholesale--costco wholesale corp###be retailer for###bulk'
p131
aS'nasdaq--microsoft shares###were on###the nasdaq'
p132
aS'monsanto--monsanto###has been moving internally to pivot to###a post-glyphosate future'
p133
aS'gap--many merchants###still are expanding to fill###the gap left by the retreat of european and u.s. banks ,'
p134
aS'microsoft--microsoft shares###were on###the nasdaq'
p135
aS'target--target###said in###2013'
p136
aS'costco wholesale--a unit that sells products in bulk###competes with###costco wholesale corp'
p137
aS'expedia--expedia###has###less expertise " rbc capital markets analyst mark mahaney wrote in a note'
p138
aS'expedia--expedia###rose 8.6 percent at###a record of $ 115'
p139
aS'hp--hp###forecasts###split-related costs'
p140
aS'target--target spokeswoman molly snyder###confirmed###the development'
p141
aS'amgen--amgen###ends###collaboration'
p142
aS'target--the economy###be keeping on###track to hit the price target'
p143
aS'time warner--time warner cable inc###be operator of###u.s. cable'
p144
aS'boeing--boeing shares###was the biggest drag on###the dow'
p145
aS'target--a government target###ranges from###2.5 percent'
p146
aS'nasdaq--the nasdaq composite###rose###6.01 points , or 0.12 percent'
p147
aS'nasdaq--the nasdaq composite .ixic###rose 6.01 points , or 0.12 percent , to###5,096.81'
p148
aS'amazon.com--) and amazon.com inc###can said in###an email'
p149
aS'mattel--mattel inc###owns it in###other countries where the collins word list is mostly used'
p150
aS'gap--she and other fed policymakers###try to close###the gap'
p151
aS'morgan stanley--bnp paribas , bank of america merrill lynch , citigroup , deutsche bank , morgan stanley and santander gbm###to schedule###a series of fixed-income investor meetings'
p152
aS'citigroup--may 22 citigroup###said on###friday'
p153
aS'target--inflation###will indeed make it to###its target'
p154
aS'citigroup--citigroup###said on###friday'
p155
aS'deere--deere###raised###its full-year outlook'
p156
aS'microsoft--microsoft###can said in###an email'
p157
aS'time warner--shares of time warner cable###rose###2.7 percent'
p158
aS"target--the boj 's 2 percent inflation target###to hit to be###september 2016"
p159
aS"monsanto--antitrust issues###arising from###monsanto 's planned acquisition of syngenta"
p160
aS'waters--high waters###delayed###the opening'
p161
aS'expedia--expedia###rose###8.6 percent'
p162
aS"target--inflation###was moving toward###the fed 's target"
p163
aS'reynolds american--it###considered###a long-running racketeering case brought by the u.s. government against various companies including altria group inc , lorillard inc and reynolds american inc.'
p164
aS"hp--hp###forecast full-year earnings below###analysts ' estimates"
p165
aS"waters--greenpeace###to link to###a form letter asking him to rescind royal dutch shell plc 's drilling lease in arctic waters"
p166
aS'time warner--u.s. federal communications commission chairmantom###wheelerreached out to###the chief executives of time warner cable'
p167
aS"goldman sachs--goldman sachs###is building a new 111,500 square metre european headquarters in###london 's farringdon business hub"
p168
aS'southern--a southern air base###be controlled by###the rebels'
p169
aS'monsanto--monsanto###introduced roundup to###the world'
p170
aS'expedia--expedia###hit record highs on###stake sale deal'
p171
aS"hp--state-backed tsinghua holdings ' subsidiary unisplendour corp ltd###will acquire###51 percent of hp 's h3c technologies"
p172
aS'wells fargo--wells fargo###agreed over###claims it discriminated against black and hispanic customers by , among other things , steering them toward subprime mortgages'
p173
aS'entergy--entergy corp###said in###friday'
p174
aS'expedia--expedia###also has been acquiring###companies'
p175
aS'microsoft--microsoft###was###willing'
p176
aS'u.s. dollar--the u.s. dollar###turned on###friday'
p177
aS'citigroup--neither citigroup###are accused of###fraud'
p178
aS'harris--harris###said###a statement'
p179
aS'mattel--mattel inc###owns###it'
p180
aS'expedia--expedia###then raised its stake in elong in###2011'
p181
aS"deere--deere 's construction and forestry business###was###a bright spot"
p182
aS'microsoft--microsoft and salesforce###declined to comment on###the report'
p183
aS"monsanto--monsanto 's move###could mean###move"
p184
aS'nasdaq--1,135###fell on###the nasdaq'
p185
aS'target--its own target of 8-10 million bpd of refining firepower###would eclipse###exxonmobil'
p186
aS'bank of america--bnp paribas , bank of america merrill lynch , citigroup , deutsche bank , morgan stanley and santander gbm###to schedule###a series of fixed-income investor meetings'
p187
aS'nasdaq--the nasdaq composite###lost 1.43 points , or 0.03 percent , to###5,089.36'
p188
aS'hasbro--hasbro###owns###the rights'
p189
aS'deere--deere###raises###2015 profit outlook'
p190
aS'hp--hp###sells###$ 2.3 bln china unit stake'
p191
aS'expedia--expedia###rose###9 percent'
p192
aS'time warner--group altice atce.as###has also approached###time warner cable'
p193
aS'target--inflation returns###to ensure to be###the 4.5 percent center of its target range'
p194
aS'nasdaq--nasdaq###added###0.8 percent'
p195
aS"amgen--amgen 's shares###closed on###the nasdaq"
p196
aS"nasdaq--amgen 's shares###closed on###the nasdaq"
p197
aS'nasdaq--the nasdaq composite###lost 4.64 points , or 0.22 percent , to###2,126.18'
p198
aS'monsanto--monsanto co###is also known for###the popularity of its roundup herbicide'
p199
aS"target--inflation###may approach###the federal reserve 's 2 percent target"
p200
aS"deere--deere 's construction and forestry business###was a bright spot in###the quarter"
p201
aS'target--target###be sued in###federal court'
p202
aS'nasdaq--the nasdaq composite###added 7.83 points , or 0.15 percent , to###5,098.63'
p203
aS'goldman sachs--goldman sachs###employs around 5,500 people in###britain'
p204
aS'entergy--entergy corp###said on###friday'
p205
aS'time warner--group altice###has also approached###time warner cable'
p206
aS'target--a 2 percent inflation target###be has by###the fed'
p207
aS'boeing--boeing shares###was###the biggest drag'
p208
aS'goldman sachs--around 5,500 people###be employs by###goldman sachs'
p209
aS'nasdaq--the nasdaq composite .ixic###rose 19.05 points , or 0.38 percent to###5,090.79'
p210
aS'u.s. dollar--22 speculators further###may scaled back bullish bets on###the u.s. dollar'
p211
aS'target--strategic sales###to partly meet###its target'
p212
aS'expedia--expedia inc###sold###its entire stake'
p213
aS'target--inflation###hit###his 2 percent target'
p214
aS'target--the price target###to be achieve in###two years'
p215
aS"hp--ongoing cost reductions and hp 's focus###were driving###profit"
p216
aS"monsanto--monsanto 's ongoing efforts###could spark###a sell-off or de-emphasis of a product line that last year brought in roughly $ 5 billion , or a third of total revenues for monsanto"
p217
aS'southern--cross border rocket attacks###have killed two people in###southern saudi arabia'
p218
aS'time warner--shares of time warner cable###rose 2.7 percent in###friday morning trade'
p219
aS'expedia--expedia###got###a 30 percent stake'
p220
aS'expedia--expedia###then raised###its stake'
p221
aS'southern--their positions###be also struck outside###the southern city of aden'
p222
aS'deere--deere###also forecast###a 17 percent profit drop'
p223
aS'morgan stanley--ted wieseman###be an economist at###morgan stanley'
p224
aS"monsanto--china 's state-owned china national chemical corp###is###a good candidate to purchase monsanto 's roundup business"
p225
aS'gap--the price gap###hit as much as $ 7.40 contango in###early january'
p226
aS'boeing--boeing shares###fell###1.7 percent'
p227
aS'nasdaq--the nasdaq composite .ixic###dropped 1.43 points , or 0.03 percent , to###5,089.36'
p228
aS'u.s. dollar--u.s. dollar strength###hurt###some energy stocks'
p229
aS'target--inflation###to slash to be###the center of a government target'
p230
aS'target--target###is still negotiating over###losses'
p231
aS'target--inflation###to nudge to be###its 2 percent target'
p232
aS'target--center of target###to be reach by###2016'
p233
aS'target--molly snyder###be spokeswoman of###target'
p234
aS'southern--the southern oilfields###being developed with###the help of foreign oil companies'
p235
aS'deere--deere###raises 2015 profit outlook despite###weak farm market'
p236
aS'harris--harris###said in###a statement'
p237
aS'nasdaq--nyse declining issues###fell on###the nasdaq'
p238
aS"amgen--novartis ag 's copy of amgen 's blockbuster neupogen###won regulatory approval in###this year"
p239
aS"target--japan###is on###track to hit the bank 's ambitious inflation target"
p240
aS"target--the boj 's 2 percent inflation target###to be hit around###the six months"
p241
aS'target--target###is still negotiating with###visa inc'
p242
aS'waters--offshore waters###be fouled near###santa barbara'
p243
aS'monsanto--whose members###include###monsanto , bayer cropscience and dupont'
p244
aS'monsanto--monsanto###introduced roundup###1974'
p245
aS'citigroup--citigroup###said in###friday'
p246
aS'expedia--expedia###got a 30 percent stake in elong following###its 2005 spinoff'
p247
aS'expedia--expedia###sells elong stake###others'
p248
aS"goldman sachs--goldman sachs###is looking to bundle debt backing three of colombia 's 4g highway projects and sell it as###an up to us$ 500m 144a bond"
p249
aS'target--target###be sued over###the breach'
p250
aS'bank of america--bank of america###has paid out twice as much as any other bank in settlements and compensation with###a bill of almost $ 80 billion'
p251
aS'target--mastercard###be settlement of###target data breach'
p252
aS'nasdaq--the nasdaq composite###rose 6.01 points , or 0.12 percent , to###5,096.81'
p253
aS'nasdaq--the nasdaq composite###lost###4.64 points , or 0.22 percent'
p254
aS'microsoft--shares of microsoft###lost 1.10 percent after###cnbc'
p255
aS'gap--the gap###be left by###the retreat of european and u.s. banks'
p256
aS'target--the economy###will recover enough to nudge inflation to###its 2 percent target'
p257
atRp258
.