c__builtin__
set
p1
((lp2
S'pm--pm###has taken###call'
p3
aS'gm--gm###said in###the 2014 report released on thursday'
p4
aS"key--key###rating###drivers israel 's idrs balance a strong external balance sheet , robust institutional strength , solid macroeconomic performance and substantial financing flexibility"
p5
aS'adm--adm###launches sustainable soy certification program in###brazil'
p6
aS'aig--aig###prompted a $ 182 billion bailout at###the depth of the financial crisis'
p7
aS'adm--adm###declined to give###company-specific export data'
p8
aS'ma--ma###praised###outgoing ceo jonathan lu'
p9
aS'pm--pm###has taken call from###@fhollande'
p10
aS'adm--adm###launches###sustainable soy certification program'
p11
aS'gm--gm###needs more fuel efficient cars like###other automakers'
p12
aS"key--key###rating drivers israel 's idrs balance a strong external balance sheet , robust institutional strength , with###an elevated government debt/gdp ratio and high geopolitical risks"
p13
aS'gm--gm###said###the 2014 report released on thursday'
p14
aS"key--key###is part of###a lucrative business empire headed by the deputy commander of the west african nation 's elite republican guard"
p15
aS'ctas--ctas###lost on###average 1.7 percent'
p16
aS'ma--ma###quickly smoothed###things'
p17
aS'ctas--ctas###lost in###april'
p18
aS'key--key###rating solid macroeconomic performance with###an elevated government debt/gdp ratio and high geopolitical risks'
p19
aS'gm--gm###needs###more fuel efficient cars'
p20
aS"key--key###rating###drivers the ratings reflect tallinn 's solid budgetary performance ,"
p21
aS'cf--cf###is caused by###a missing or defective gene that makes the body'
p22
aS"key--key###rating###drivers the ratings reflect istanbul 's continued strong operating performance , wealthy economy and solid fiscal management"
p23
aS'ma--ma###exerts###an outsize influence'
p24
aS'ma--ma###trumpeted###the appointment of a fresh chief executive'
p25
aS'gm--gm###is committed to###electrification'
p26
aS'key--key###rating robust institutional strength with###an elevated government debt/gdp ratio and high geopolitical risks'
p27
atRp28
.c__builtin__
set
p1
((lp2
S'nasdaq--the nasdaq composite###gained 28.10 points , or 1.35 percent , to###2,116.10'
p3
aS'target--target###the breach may have during###the holiday shopping season compromised at least 40 million credit cards'
p4
aS'nasdaq--the nasdaq composite###gained 25.89 points , or 1.24 percent , to###2,113.89'
p5
aS'monsanto--monsanto###to buy###syngenta'
p6
aS"target--inflation###be bring back up to###the ecb 's target of below"
p7
aS'target--update 2-sandridge###is###target of antitrust grand jury probe'
p8
aS'united continental holdings--united continental holdings inc###said on###friday'
p9
aS'microsoft--microsoft and several other big software companies###to beef up###their presence'
p10
aS'target--target###said in###2013'
p11
aS'johnson & johnson--the companies###dismissed in###teva pharmaceutical industries ltd , johnson & johnson , endo health solutions inc and actavis plc'
p12
aS'apple--here###is a natural asset for###apple'
p13
aS'cisco systems--cisco systems inc###be maker of###network equipment'
p14
aS'monsanto--a deal###would give###monsanto'
p15
aS'oracle--oracle###had made###an approach to buy salesforce'
p16
aS'target--vadian###accepted###accounts that were forced out of other swiss banks in 2008 after it became public that ubs ag was the target of a criminal investigation over facilitating tax evasion'
p17
aS'microsoft--microsoft###rose###2.25 percent)[enabler=after reuters reported that the company was not weighing an offer for salesforce .com ( crm.n '
p18
aS'microsoft--microsoft###could review###a bid'
p19
aS'nasdaq--the nasdaq###is lower than###its record close'
p20
aS'boeing--it###expects to take###delivery of nine boeing'
p21
aS'target--target corp###be suing over###its 2013 data breach to block the company \'s proposed $ 19 million settlement with mastercard inc. u.s. district judge paul magnuson in st . paul , minnesota , wrote in a ruling thursday that the deal does not appear "altogether fair or reasonable "'
p22
aS'target--syngenta###is###the only available target'
p23
aS'ford motor--ford motor co###said on###friday'
p24
aS'apple--an apple spokeswoman###declined to comment on###the legal action'
p25
aS'metlife--metlife###recently filed###a lawsuit'
p26
aS"starbucks--mother jones###published###a story showing that starbucks ' ethos water was sourced in areas"
p27
aS'target--the target of a federal grand jury probe concerning violations of antitrust law###said in###a regulatory filing'
p28
aS'target--target or mastercard###had made###misleading or coercive statements'
p29
aS'ford motor--ford motor co###uses vr headsets to help###test car designs'
p30
aS'starbucks--starbucks###bought privately held ethos brands llc in###april 2005'
p31
aS'u.s. dollar--the u.s. dollar###failed to rally against###a basket of major currencies'
p32
aS"waters--its territorial waters###be violating off###the peninsula 's west coast"
p33
aS'bank of america--bank of america merrill lynch , wells fargo securities and jefferies###are the lead underwriters of###the offering'
p34
aS'general electric--the merged company###would compete only with###general electric'
p35
aS'morgan stanley--ian stannard###be senior currency strategist at###morgan stanley'
p36
aS'southern--bojangles###operates in###the fastest-growing but crowded restaurant segment , serves southern u.s.-inspired food'
p37
aS'monsanto--monsanto###may have following###attempts to clamp down on such moves ,'
p38
aS'target--ubs ag###was###the target of a criminal investigation'
p39
aS"target--price growth###was###only 0.3 percent well below the ecb 's target of just below 2 percent and analysts said that figure alone could not explain the full extent of the rise in yields"
p40
aS'u.s. dollar--the canadian dollar###was trading to###the u.s. dollar'
p41
aS'nasdaq--the nasdaq composite###added###58.00 points , or 1.17 percent'
p42
aS'ball--its soccer ball brand###was###the only one named in " children of industry'
p43
aS'u.s. dollar--the u.s. dollar###failed to rally on###friday'
p44
aS'metlife--metlife###lowered its forecasts for return on equity citing###the unknown impact of the new rules'
p45
aS'anthem--carawan###quickly became###the anthem of the civil rights movement the new york times said on thursday'
p46
aS'monsanto--agrochemicals###rose###15 percent)[enabler=after it rejected a $ 45 billion takeover offer from monsanto ( mon.n '
p47
aS'boeing--the gulf state###would instead buy###the american-made boeing f18 super hornet'
p48
aS"coca-cola--coca-cola 's california facilities###no longer use water for###things"
p49
aS'target--his target###to eliminate altogether###it'
p50
aS'progressive--the fast-food giant###to be turn into###a "modern , progressive burger company'
p51
aS'chesapeake energy--chesapeake energy###be co-founded in###1989'
p52
aS'target--the annual inflation rate###however will probably remain above###the official target of 4.5 percent'
p53
aS'chipotle mexican grill--few restaurant chains that have gone public in recent years###to replicate###the success of investor favorite chipotle mexican grill'
p54
aS'nasdaq--the nasdaq###was recording###62 new highs and 29 new lows'
p55
aS'target--sandridge energy inc###is###the target of a federal grand jury probe'
p56
aS'metlife--metlife###filed its lawsuit in###january'
p57
aS'monsanto--15 percent###be rose among###individual movers)[enabler=after it rejected a $ 45 billion takeover offer from monsanto ( mon.n '
p58
aS'hess--the oil###be transported in###tank cars owned by hess corp'
p59
aS'general electric--the athletic shoemaker nike###joined###wal-mart stores inc , apple inc , general electric co and ford motor co'
p60
aS'monsanto--monsanto###is###likely'
p61
aS'starbucks--starbucks###bought privately held###ethos brands llc'
p62
aS'u.s. dollar--the u.s. dollar###is in###last year'
p63
aS'metlife--metlife###filed###its lawsuit'
p64
aS'goldman sachs--alberto ramos###be an economist at###goldman sachs'
p65
aS'target--sandridge###is###target of antitrust grand jury probe'
p66
aS'halliburton--baker hughes and halliburton###have also announced###thousands of redundancies'
p67
aS'nasdaq--the nasdaq composite .ixic###added 58 points , or 1.17 percent , to###5,003.55'
p68
aS'monsanto--syngenta###turns down###monsanto offer of 449 swiss francs /share'
p69
aS'starbucks--the ethos water fund###is part of###the starbucks foundation'
p70
aS'monsanto--agrochemicals###rose 15 percent among###individual movers)[enabler=after it rejected a $ 45 billion takeover offer from monsanto ( mon.n '
p71
aS'target--the government###has lowered###its growth target'
p72
aS'monsanto--monsanto###should move###its headquarters'
p73
aS'monsanto--monsanto###to strike###an alliance'
p74
aS'northern trust--jim mcdonald###be chief investment strategist at###chicago-based northern trust asset management'
p75
aS'monsanto--syngenta###rose###15 percent)[enabler=after it rejected a $ 45 billion takeover offer from monsanto ( mon.n '
p76
aS'amazon.com--amazon.com inc###be peer for###u.s.'
p77
aS'dow chemical--german chemicals company basf and u.s. petrochemicals group dow chemical###could be among###possible bidders'
p78
aS'microsoft--microsoft###was evaluating###a bid'
p79
aS'coca-cola--coca-cola###is involved in###several water stewardship projects'
p80
aS"target--target corp###be suing over###its 2013 data breach to block the company 's proposed $ 19 million settlement with mastercard inc"
p81
aS'wal-mart stores--the athletic shoemaker nike###joined###wal-mart stores inc'
p82
aS'target--gm chief executive mary barra###outlined###its 2017 target'
p83
aS'wal-mart stores--the athletic shoemaker nike###joined###wal-mart stores inc , apple inc , general electric co and ford motor co'
p84
aS'monsanto--monsanto###foresees strong benefits from###a takeover of syngenta'
p85
aS'nasdaq--the nasdaq composite .ixic###finished###58.00 points , or 1.17 percent , higher'
p86
aS'southern--almost three years the southern california city of san bernardino will issue its long-awaited bankruptcy exit plan on thursday , may 14 , the city mayor###said on###friday'
p87
aS'metlife--metlife###filed its lawsuit to contest designation by###the financial stability oversight council'
p88
aS'nasdaq--the nasdaq composite###finished 58.00 points , or 1.17 percent , higher to###5,003.55'
p89
aS'apple--an apple spokeswoman###to comment on###the legal action'
p90
aS'apple--swedish telecom equipment maker ericsson has filed lawsuits in germany , britain and the netherlands against apple over technology licence payments###said on###friday'
p91
aS'target--rolls royce###gave###a target'
p92
aS'starbucks--starbucks###bought privately held ethos brands llc in###april'
p93
aS'monsanto--monsanto###still working on###deal)[enabler=by pamela barbaglia and alexander hbner may 8 ( reuters '
p94
aS'microsoft--microsoft###was evaluating a bid for salesforce after###the latter'
p95
aS'nasdaq--the nasdaq composite###added 60.77 points , or 1.23 percent , to###5,006.32'
p96
aS"target--rousseff 's generous spending and tax breaks###contributed currently at 8.2 percent above###the government 's 4.5 percent target"
p97
aS'monsanto--monsanto###should move its headquarters to###switzerland'
p98
aS'nasdaq--the nasdaq composite###added 58 points , or 1.17 percent , to###5,003.55'
p99
aS'microsoft--microsoft###jumped###2.1 percent'
p100
aS'nasdaq--nasdaq 1.2 pct###ended on###friday'
p101
aS'monsanto--monsanto###to pay###a premium of up'
p102
aS'nasdaq--the nasdaq composite###gained###28.10 points , or 1.35 percent'
p103
aS'goldman sachs--syngenta###had been working with###goldman sachs'
p104
aS"waters--pyongyang 's warning###came during###the annual crab fishing season which runs until june in the waters off the west coast of the korean peninsula"
p105
aS'monsanto--monsanto###may have to buy syngenta in###a cash'
p106
aS'nasdaq--the nasdaq composite###added###52.85 points , or 1.07 percent'
p107
aS'apple--ericsson###has filed lawsuits against###apple'
p108
aS"metlife--metlife 's capital###could drop by###50 percent"
p109
aS'oracle--oracle###have much smaller online###crm revenues'
p110
aS'general electric--general electric co###said on###friday'
p111
aS'goldman sachs--tiago severo###be economist with###goldman sachs'
p112
aS'allergan--the company###continues to integrate###its $ 66 billion purchase which will change its name to allergan'
p113
aS'microsoft--microsoft and several other big software companies###are seeking to beef up their presence in###cloud computing'
p114
aS'staples--staples###discussed###a 2014 cash build-up'
p115
aS'alcoa--alcoa###be company of###u.s. metals'
p116
aS'metlife--metlife###lowered###its forecasts'
p117
aS"target--headline cpi###remains below###the rbi 's target of 6 percent"
p118
aS'target--the whole of the arid###would become###a military target'
p119
aS'united continental holdings--united continental holdings inc###said in###friday'
p120
aS'starbucks--starbucks corp###said of###it'
p121
aS'monsanto--monsanto###however could seek to place a joint bid in###an effort to ease "draconian antitrust scrutiny'
p122
aS'monsanto--antitrust scrutiny monsanto###foresees strong benefits from###a takeover of syngenta'
p123
aS'monsanto--antitrust scrutiny monsanto###foresees###strong benefits'
p124
aS'ford motor--venezuela###be division of###ford motor co'
p125
aS"apple--apple###continues to profit from###ericsson 's technology"
p126
aS'chesapeake energy--chesapeake energy###be co-founded with###ward'
p127
aS'nasdaq--the nasdaq composite###ended up###27.91 points , or 1.34 percent'
p128
aS'southern--the southern california city of san bernardino###will issue###its long-awaited bankruptcy exit plan'
p129
aS'nasdaq--the nasdaq composite###added###58 points , or 1.17 percent'
p130
aS'microsoft--microsoft###could review a bid for salesforce in###the long term'
p131
aS"microsoft--salesforce 's shares which have risen 48 percent in the last 12 months###be trade above###microsoft 's multiple of 19.1"
p132
aS'perrigo--it###will move ahead with###its plans to acquire mylan if the perrigo deal is not completed'
p133
aS'monsanto--monsanto###however could seek to strike###an alliance'
p134
aS"apple--apple###to profit from###ericsson 's technology"
p135
aS'metlife--metlife###filed its lawsuit to contest designation as###a systemically important firm which subjects it to tougher prudential standards and oversight by the federal reserve'
p136
aS"darden restaurants--the hedge fund 's success###follows###activist investor starboard value lp 's ouster of darden restaurants inc 's entire board"
p137
aS'monsanto--syngenta###rose 15 percent among###individual movers)[enabler=after it rejected a $ 45 billion takeover offer from monsanto ( mon.n '
p138
aS'coca-cola--coca-cola###is not moving###bottled water operations'
p139
aS'u.s. dollar--the strong u.s. dollar but a weak euro and norwegian crown###be citing as###currencies that impact its results although the overall effect on reported profits would be neutral'
p140
aS'metlife--metlife###recently filed a lawsuit contesting###a decision to subject the company to tougher rules and direct oversight by the fed'
p141
aS'nasdaq--the nasdaq composite index###was up 63.97 points , 1.29 percent , at###5,009.52'
p142
aS'anthem--it###quickly became###the anthem of the civil rights movement the new york times said on thursday'
p143
aS'nasdaq--the nasdaq composite###was recording###68 new highs and 35 new lows'
p144
aS'monsanto--monsanto###continues to circle###the company'
p145
aS'applied materials--chip gear-maker applied materials inc###to post on###thursday'
p146
aS'microsoft--microsoft and several other big software companies###are seeking to beef up###their presence'
p147
aS'symantec--symantec corp###be the maker of###norton antivirus software'
p148
aS'ford motor--the athletic shoemaker nike###joined###wal-mart stores inc , apple inc , general electric co and ford motor co'
p149
aS'symantec--symantec corp###to report###fourth-quarter results'
p150
aS'monsanto--monsanto###has long been interested in###its swiss rival and the potential'
p151
aS'monsanto--monsanto###may team up with###partner'
p152
aS'nasdaq--the nasdaq composite###gained 28.04 points , or 1.34 percent , to###2,116.04'
p153
aS'monsanto--firm monsanto###has not given up on###a proposed takeover of swiss rival syngenta'
p154
aS"metlife--metlife 's capital###could drop in###a worst-case scenario"
p155
aS'apple--ericsson###had already filed a complaint against###apple'
p156
aS'time warner--a lawsuit###be brought against###the time warner inc subsidiary'
p157
aS'boeing--boeing co###holds###its annual investor conference'
p158
aS'waters--its waters###be violating for###the past week'
p159
aS'monsanto--monsanto###foresees###strong benefits'
p160
aS'oracle--oracle chief executive safra catz###said in###last month'
p161
aS'nasdaq--nasdaq 1.2 pct###updates to###early afternoon'
p162
aS'coca-cola--dasani###are brand of###coca-cola co'
p163
aS'ford motor--ford motor co###uses vr headsets for###instance'
p164
aS'apple--swedish telecom equipment maker ericsson has filed lawsuits in germany , britain and the netherlands against apple over technology license payments###said on###friday'
p165
aS'u.s. dollar--the peak summer travel season###ends as###the strong u.s. dollar'
p166
aS'amazon.com--amazon.com inc###be peer of###u.s.'
p167
aS'u.s. dollar--the u.s. dollar###was mostly###little'
p168
aS"target--inflation###be suggested below###the rbi 's target of 6 percent"
p169
aS'southern--the southern california city of san bernardino###will issue its long-awaited bankruptcy exit plan on###thursday'
p170
aS'u.s. dollar--the u.s. dollar###to rally against###a basket of major currencies'
p171
aS'boeing--smaller boeing 767-300er aircraft###to be move onto###transatlantic routes where there is decreased demand'
p172
aS'monsanto--monsanto###meanwhile is focused on###conventional and biotech seeds'
p173
aS"target--the government###intends to achieve###its target turning japan 's primary budget deficit into a surplus by fiscal 2020"
p174
aS'u.s. dollar--the u.s. dollar###to rally on###friday'
p175
aS'monsanto--monsanto###may need to pay###a premium of up'
p176
aS'monsanto--monsanto###however could seek to place###a joint bid'
p177
aS'target--the target of a federal grand jury probe concerning violations of antitrust law###said on###thursday'
p178
aS'mohawk industries--mohawk industries###be maker for###u.s. flooring products'
p179
aS'boeing--it###to move###smaller boeing 767-300er aircraft'
p180
aS'mohawk industries--mohawk industries###be maker of###u.s. flooring products'
p181
aS'target--japan###has yet to achieve###its 2 percent inflation target'
p182
aS'target--its 2017 target###be outlined in###november 2012'
p183
aS'nasdaq--the nasdaq composite###added 58.00 points , or 1.17 percent , to###5,003.55'
p184
aS'target--sandridge energy inc###is###the target of a federal grand jury probe concerning violations of antitrust law'
p185
aS'nasdaq--the nasdaq composite###finished###58.00 points , or 1.17 percent , higher'
p186
aS"target--china 's trade###grew 3.4 percent missing###the government 's growth target of 7.5 percent"
p187
aS'microsoft--microsoft###has###no plans'
p188
aS"target--saudi-led forces###warned###civilians that yemen 's saada province would be a military target"
p189
aS'nasdaq--the nasdaq composite###gained###25.89 points , or 1.24 percent'
p190
aS'nasdaq--the nasdaq composite###gained###28.04 points , or 1.34 percent'
p191
aS'hess--tank cars###be owned by###hess corp'
p192
aS'wells fargo--bank of america merrill lynch , wells fargo securities and jefferies###are the lead underwriters of###the offering'
p193
aS'nasdaq--the nasdaq composite###added###60.77 points , or 1.23 percent'
p194
aS'ford motor--ford motor co###uses###vr headsets'
p195
aS"coca-cola--coca-cola 's california facilities###no longer use###water"
p196
aS'cisco systems--cisco systems inc###be maker for###network equipment'
p197
aS'nasdaq--the nasdaq composite###ended up 27.91 points , or 1.34 percent , to###2,115.91'
p198
aS'hess--the tioga rail complex###be owned by###hess'
p199
aS'metlife--metlife###filed its lawsuit to contest###designation'
p200
aS'applied materials--applied materials###to benefit from###a pick'
p201
aS'starbucks--starbucks \' ethos water###was sourced in###areas deemed to be in "exceptional drought'
p202
aS'ebay--silicon valley###be home of###ebay chief executive john donahoe and his wife'
p203
aS'target--target###is still negotiating over###losses'
p204
aS"target--the poll###suggested inflation incpiy=ec i eased to 4.9 percent in april from march 's three-month low of 5.2 percent below###the rbi 's target of 6 percent"
p205
aS'general motors--general motors co###fired is###450 workers'
p206
aS'monsanto--other large providers of crop chemicals###have diversified their operations in###areas which are less relevant for monsanto'
p207
aS'johnson & johnson--the companies###dismissed in###teva pharmaceutical industries ltd , johnson & johnson jnj.n> , endo health solutions inc and actavis plc'
p208
aS'gap--m&a and buyout activity###is slowing due to###a wide gap'
p209
aS'apple--the athletic shoemaker nike###joined###wal-mart stores inc , apple inc , general electric co and ford motor co'
p210
aS'general electric--may 8 general electric co###has won###a five-year contract valued at up to $ 2 billion to supply helicopter engines to the government of taiwan and support a number of u.s. military services'
p211
aS"waters--puppet navy vessels###violate our military 's maritime border in###the west coast hotspot waters"
p212
aS'metlife--metlife###lowered its forecasts for return on equity citing the unknown impact of the new rules among###other things'
p213
aS'monsanto--syngenta###rejects###$ 45 billion monsanto takeover offer'
p214
aS'target--target###is still negotiating with###visa inc'
p215
aS'nasdaq--the nasdaq composite .ixic###finished 58.00 points , or 1.17 percent , higher to###5,003.55'
p216
aS'nasdaq--the nasdaq composite###recorded###71 new highs and 42 new lows'
p217
aS'nasdaq--the nasdaq composite###added 52.85 points , or 1.07 percent , to###4,998.40'
p218
aS'allergan--its name###will be change to###allergan'
p219
aS'ebay--ebay chief executive john donahoe and his wife###be director of###global affairs'
p220
aS'microsoft--microsoft###rose###2.25 percent'
p221
aS'cisco systems--network equipment maker cisco systems inc###to report on###wednesday'
p222
aS'monsanto--monsanto###may have to buy###syngenta'
p223
aS'general electric--it###to compete with###general electric'
p224
aS'morgan stanley--jefferies and morgan stanley###were###the two firms that said the fed will begin raising rates in december'
p225
aS'monsanto--monsanto###said with###a modest price'
p226
aS'u.s. dollar--the u.s. dollar###is since###june'
p227
atRp228
.