(lp1
c__builtin__
set
p2
((lp3
S'time warner--charter communications inc###is near###an agreement to acquire time warner cable inc for $ 195 per share in cash and stock'
p4
aS'time warner cable--charter communications inc###is near###an agreement to acquire time warner cable inc for $ 195 per share in cash and stock'
p5
atRp6
ag2
((lp7
S'coca-cola--25 one of two men###was an it manager at###a subsidiary of coca-cola co'
p8
aS'coca-cola--it###was an it manager at###a subsidiary of coca-cola co'
p9
atRp10
ag2
((lp11
S'cme--rpt column as lme looks east , cme###throws down###challenge'
p12
atRp13
ag2
((lp14
S'ryder--ryder shares###could rise###30 percent'
p15
aS"ryder--ryder system inc 's shares###could rise###30 percent"
p16
aS'ryder--ryder shares###could rise 30 percent in###a year barron'
p17
aS"ryder--ryder system inc 's shares###could rise 30 percent in###a year"
p18
atRp19
ag2
((lp20
S'goldman sachs--25 goldman sachs group inc###may plans to establish###a bond facility to target $ 1 billion in investment within the next few years in renewable energy projects in japan'
p21
aS'goldman sachs--goldman sachs###targets###$ 1 bln'
p22
atRp23
a.