c__builtin__
set
p1
((lp2
S'kim###gave###field guidance'
p3
aS'kim###gave field guidance at###a fishery complex'
p4
atRp5
.c__builtin__
set
p1
((lp2
S"he###'s interested in###apple 's intervention"
p3
aS'the missile vehicle###can be carry to###a target'
p4
aS'starbucks corp###said of###it'
p5
aS'jpmorgan chase###settled in###january'
p6
aS'a full deployment of the submarine-based missile system###would still require###a functional guided propulsion mechanism that can carry the missile vehicle from the water surface to a target'
p7
aS'italian holding company exor spa###hired###goldman sachs group inc and morgan stanley'
p8
aS'coca-cola###is not moving###bottled water operations'
p9
aS'consumer inflation###is still far short of###beijings 3 percent target'
p10
aS'southern copper###be controlled by###grupo mexico'
p11
aS'the ethos water fund###is part of###the starbucks foundation'
p12
aS'he###had visited with###tesla motors inc , apple inc and google inc'
p13
aS'jpmorgan chase###settled in###march'
p14
aS"exxon mobil 's refinery###was rocked by###an explosion and fire"
p15
aS"police and locals###protesting against###southern copper corp 's $ 1.4 billion tia maria project"
p16
aS'a key ingredient###be produced by###monsanto co. monsanto'
p17
aS'a $ 300 million loan###be extended by###leucadia national corp'
p18
aS'staples###discussed###a 2014 cash build-up'
p19
aS"a 52-day labor strike that led to a shutdown at tesoro corp 's refinery in martinez , california###helped###the companys chief executive"
p20
aS'trade data released on friday###is still far###short of beijings 3 percent target'
p21
aS'apple###has been developing###its own electric self-driving car'
p22
aS'starbucks###bought privately held ethos brands llc in###april 2005'
p23
aS"negotiations###also are continuing between###striking workers and marathon petroleum corp 's galveston bay refinery"
p24
aS'coca-cola###is involved in###several water stewardship projects'
p25
aS"consumer inflation###is still far###short of beijing 's 3 percent target"
p26
aS'starbucks###bought privately held ethos brands llc at###april 2005'
p27
aS"a 52-day labor strike###led at###tesoro corp 's refinery"
p28
aS'starbucks###bought privately held###ethos brands llc'
p29
aS'marchionne###was specific about###apple'
p30
aS'goldman sachs###expected to settle###forex suit'
p31
aS'tia maria###be project of###southern copper corp'
p32
aS"may 9 peru 's government###authorized###the military to take control of a southern region"
p33
aS'the terminal###would be built in###the small southern town of lindi'
p34
aS"tesoro 's profit###jumped###amounting"
p35
aS'goldman sachs###was###not available'
p36
aS"coca-cola 's california facilities###no longer use###water"
p37
aS'trade data released on friday###is still far short of###beijings 3 percent target'
p38
aS"coca-cola 's california facilities###no longer use water for###things"
p39
aS"trade data released on friday###is still far###short of beijing 's 3 percent target"
p40
aS'glyphosate###is###a key ingredient produced by monsanto co. monsanto'
p41
aS"tesoro 's profit###jumped amounting to california profits of $ 119 million for tesoro by###20 cents"
p42
aS"trade data released on friday###is still far short of###beijing 's 3 percent target"
p43
aS"consumer inflation###is still far short of###beijing 's 3 percent target"
p44
aS'consumer inflation###is still far###short of beijings 3 percent target'
p45
aS'jpmorgan chase###settled###january'
p46
aS'he###had met with###apple chief executive tim cook and tesla ceo'
p47
aS'tina barbee###be spokeswoman of###tesoro'
p48
aS"120,000 tonnes of copper###to add to be###nasdaq-listed southern copper 's annual output"
p49
aS'goldman sachs###to settle###forex suit'
p50
aS'goldman sachs###was not available for###comment'
p51
aS'tina barbee###be spokeswoman for###tesoro'
p52
atRp53
.