(lp1
c__builtin__
set
p2
((lp3
S'apple--apple , shell and abbvie###blitzed the us bond market in###last week'
p4
aS'abbvie--apple , shell and abbvie###blitzed the us bond market in###last week'
p5
aS'abbvie--apple , shell and abbvie###blitzed the us###bond market'
p6
aS'apple--apple , shell and abbvie###blitzed the us###bond market'
p7
atRp8
ag2
((lp9
S'facebook--facebook###may sue judge###lawyers'
p10
aS'facebook--11 facebook inc###may may pursue###a lawsuit'
p11
aS'facebook--facebook###may sue lawyers###judge'
p12
aS"facebook--facebook###may sue lawyers over###fugitive 's lawsuit n.y"
p13
aS"facebook--facebook###may sue judge over###fugitive 's lawsuit n.y"
p14
atRp15
ag2
((lp16
S'morgan stanley--castleton###joins oil trade titans with###morgan stanley deal'
p17
atRp18
ag2
((lp19
S"morgan stanley--11 castleton commodities###may has agreed to buy###morgan stanley 's physical oil business"
p20
atRp21
ag2
((lp22
S'morgan stanley--morgan stanley###said###a report'
p23
aS'morgan stanley--oil and gas m&a###set###morgan stanley'
p24
aS'morgan stanley--morgan stanley###said in###a report'
p25
atRp26
ag2
((lp27
S'goldman sachs--goldman sachs inc###has been ordered to pay $ 80 million , plus interest for###breaches associated with the sale of mortgage-linked securities'
p28
aS'goldman sachs--goldman sachs inc###has been ordered to pay $ 80 million , plus interest to###the national australia bank'
p29
atRp30
ag2
((lp31
S'noble--noble energy inc###said on###monday'
p32
aS"noble--noble energy 's $ 2 billion rosetta deal###reopens u in###.s . shale oil m&a"
p33
atRp34
ag2
((lp35
S'tesoro--tesoro corp###has canceled a crude pipeline project in utah because of###low oil prices and economic challenges'
p36
aS'tesoro--tesoro corp###has canceled###a crude pipeline project'
p37
aS'tesoro--tesoro###cancels###utah crude pipeline project'
p38
atRp39
ag2
((lp40
S'general electric--general electric co###said in###monday'
p41
aS'general electric--general electric co###said on###monday'
p42
aS'general electric--general electric co###said for###the first time'
p43
atRp44
ag2
((lp45
S'travelers--air travelers###soared more than 55 percent mainly due to###flight problems'
p46
aS'travelers--air travelers###soared###than 55 percent'
p47
aS'travelers--air travelers###soared more than 55 percent in###march'
p48
atRp49
ag2
((lp50
S'general electric--general electric co executive###said on###monday'
p51
atRp52
ag2
((lp53
S'morgan stanley--castleton###joins oil trade titans with###morgan stanley deal'
p54
aS"morgan stanley--castleton commodities international###will buy###morgan stanley 's physical oil business"
p55
atRp56
ag2
((lp57
S'tesoro--11 tesoro corp###may has canceled###a crude pipeline project'
p58
aS'tesoro--11 tesoro corp###may has canceled a crude pipeline project in utah because of###low oil prices and economic challenges'
p59
aS'tesoro--tesoro###cancels###utah crude pipeline project'
p60
atRp61
ag2
((lp62
S'general electric--general electric co###said on###monday'
p63
aS'general electric--general electric co###said for###the first time'
p64
atRp65
ag2
((lp66
S'gap--california transportation department###sees###$ 5.7 bln yearly funding gap'
p67
atRp68
a.