(lp1
c__builtin__
set
p2
((lp3
S'waters--offshore waters###be fouled near###santa barbara'
p4
aS'waters--oil###be spilled from###a pipeline rupture that closed two california state beaches and fouled offshore waters near santa barbara'
p5
atRp6
ag2
((lp7
S'citigroup--22 citigroup###may said in###friday'
p8
aS'citigroup--22 citigroup###may said on###friday'
p9
atRp10
ag2
((lp11
S'citigroup--citigroup###said in###friday'
p12
aS'citigroup--citigroup###said on###friday'
p13
atRp14
ag2
((lp15
S'waters--offshore waters###be fouled near###santa barbara'
p16
aS'waters--oil###be spilled from###a pipeline rupture that closed two california state beaches and fouled offshore waters near santa barbara'
p17
atRp18
ag2
((lp19
S'facebook--the founder of virtual reality glasses maker oculus vr inc###be acquired by###facebook inc'
p20
aS"facebook--founder of facebook 's oculus###hit with###lawsuit"
p21
atRp22
ag2
((lp23
S'expedia--expedia###sells###elong stake to ctrip'
p24
atRp25
ag2
((lp26
S'monsanto--monsanto co###is also known###a weedkiller beloved'
p27
aS'monsanto--monsanto co###is also known a weedkiller beloved by farmers and homeowners alike for its speed and deadly assault on tough weeds for###the popularity of its roundup herbicide'
p28
aS"monsanto--monsanto 's move###could mean###move"
p29
atRp30
ag2
((lp31
S'hp--hp forecasts###split related###costs'
p32
atRp33
ag2
((lp34
S'amgen--amgen###ends###collaboration'
p35
atRp36
ag2
((lp37
S'entergy--fluid###be spilled from###reactor entergy'
p38
aS'entergy--entergy###said in###friday'
p39
aS'entergy--entergy###said on###friday'
p40
atRp41
ag2
((lp42
S'cme--cme###throws down###challenge'
p43
atRp44
ag2
((lp45
S"actavis--actavis plc###cannot pull###its top-selling alzheimer 's drug"
p46
aS"actavis--actavis plc###cannot pull its top-selling alzheimer 's drug in###favor of a pricier extended-release version"
p47
aS"actavis--actavis###cannot drop###old version of alzheimer 's drug appeals court"
p48
aS"actavis--actavis plc###cannot pull its top-selling alzheimer 's drug from###the market"
p49
atRp50
ag2
((lp51
S'hp--hp forecasts###split related###costs'
p52
atRp53
ag2
((lp54
S'salesforce--salesforce###held###significant " talks'
p55
aS'salesforce--microsoft###corp held " significant " talks with###salesforce'
p56
aS'salesforce--significant " talks###be held with###salesforce'
p57
aS'microsoft--microsoft###corp held " significant " talks with###salesforce'
p58
atRp59
ag2
((lp60
S"kinder morgan--ethanol shipments###disrupted at###kinder morgan 's argo hub"
p61
atRp62
ag2
((lp63
S'facebook--22 the founder of virtual reality glasses maker oculus vr inc###be acquired by###facebook inc'
p64
aS"facebook--founder of facebook 's oculus###hit with###lawsuit"
p65
atRp66
ag2
((lp67
S'fossil--shell ceo###backs###fossil fuels'
p68
atRp69
ag2
((lp70
S"actavis--actavis plc###cannot pull###its top-selling alzheimer 's drug"
p71
aS"actavis--actavis plc###cannot pull its top-selling alzheimer 's drug in###favor of a pricier extended-release version"
p72
aS"actavis--actavis###cannot drop###old version of alzheimer 's drug appeals court"
p73
aS"actavis--actavis plc###cannot pull its top-selling alzheimer 's drug from###the market"
p74
atRp75
ag2
((lp76
S'amgen--amgen###ends###partnership'
p77
atRp78
ag2
((lp79
S'citigroup--bank citigroup inc###failed on###friday'
p80
aS'citigroup--bank citigroup inc###failed in###a bid to win an order from a london court'
p81
atRp82
a.